---
triple:          'arm64-apple-darwin'
binary-path:     Stack
relocations:
  - { offsetInCU: 0x62E7, offset: 0x62E7, size: 0x8, addend: 0x0, symName: __ZNSt3__124__put_character_sequenceB8ue170006IcNS_11char_traitsIcEEEERNS_13basic_ostreamIT_T0_EES7_PKS4_m, symObjAddr: 0x3EDC, symBinAddr: 0x1000046B0, symSize: 0x1F4 }
  - { offsetInCU: 0x939D, offset: 0x939D, size: 0x8, addend: 0x0, symName: __ZNSt3__1lsB8ue170006INS_11char_traitsIcEEEERNS_13basic_ostreamIcT_EES6_PKc, symObjAddr: 0x5E0, symBinAddr: 0x100000DB4, symSize: 0x48 }
  - { offsetInCU: 0x93E3, offset: 0x93E3, size: 0x8, addend: 0x0, symName: __ZNSt3__1rsB8ue170006IcNS_11char_traitsIcEEEERNS_13basic_istreamIT_T0_EES7_PS4_, symObjAddr: 0x628, symBinAddr: 0x100000DFC, symSize: 0x74 }
  - { offsetInCU: 0x9441, offset: 0x9441, size: 0x8, addend: 0x0, symName: __ZNSt3__14endlB8ue170006IcNS_11char_traitsIcEEEERNS_13basic_ostreamIT_T0_EES7_, symObjAddr: 0xC10, symBinAddr: 0x1000013E4, symSize: 0x58 }
  - { offsetInCU: 0x9481, offset: 0x9481, size: 0x8, addend: 0x0, symName: __ZNSt3__112__to_addressB8ue170006I4CellEEPT_S3_, symObjAddr: 0x17D4, symBinAddr: 0x100001FA8, symSize: 0x14 }
  - { offsetInCU: 0x94B6, offset: 0x94B6, size: 0x8, addend: 0x0, symName: __ZNSt3__112__to_addressB8ue170006IP4CellEEPT_S4_, symObjAddr: 0x1AA0, symBinAddr: 0x100002274, symSize: 0x14 }
  - { offsetInCU: 0x94EB, offset: 0x94EB, size: 0x8, addend: 0x0, symName: __ZNSt3__130__libcpp_is_constant_evaluatedB8ue170006Ev, symObjAddr: 0x1B38, symBinAddr: 0x10000230C, symSize: 0xC }
  - { offsetInCU: 0x9508, offset: 0x9508, size: 0x8, addend: 0x0, symName: __ZNSt3__119__libcpp_deallocateB8ue170006EPvmm, symObjAddr: 0x1B44, symBinAddr: 0x100002318, symSize: 0x30 }
  - { offsetInCU: 0x9550, offset: 0x9550, size: 0x8, addend: 0x0, symName: __ZNSt3__127__do_deallocate_handle_sizeB8ue170006IJEEEvPvmDpT_, symObjAddr: 0x1B74, symBinAddr: 0x100002348, symSize: 0x28 }
  - { offsetInCU: 0x958E, offset: 0x958E, size: 0x8, addend: 0x0, symName: __ZNSt3__124__libcpp_operator_deleteB8ue170006IJPvEEEvDpT_, symObjAddr: 0x1B9C, symBinAddr: 0x100002370, symSize: 0x24 }
  - { offsetInCU: 0x95C3, offset: 0x95C3, size: 0x8, addend: 0x0, symName: __ZNSt3__112__to_addressB8ue170006IPcEEPT_S3_, symObjAddr: 0x26E0, symBinAddr: 0x100002EB4, symSize: 0x14 }
  - { offsetInCU: 0x95F8, offset: 0x95F8, size: 0x8, addend: 0x0, symName: __ZNSt3__112__to_addressB8ue170006IPPcEEPT_S4_, symObjAddr: 0x2998, symBinAddr: 0x10000316C, symSize: 0x14 }
  - { offsetInCU: 0x962D, offset: 0x962D, size: 0x8, addend: 0x0, symName: __ZNSt3__1neB8ue170006ERKNS_16__deque_iteratorIPcPS1_RS1_PS2_lLl512EEES7_, symObjAddr: 0x3080, symBinAddr: 0x100003854, symSize: 0x34 }
  - { offsetInCU: 0x966A, offset: 0x966A, size: 0x8, addend: 0x0, symName: __ZNSt3__1eqB8ue170006ERKNS_16__deque_iteratorIPcPS1_RS1_PS2_lLl512EEES7_, symObjAddr: 0x3264, symBinAddr: 0x100003A38, symSize: 0x30 }
  - { offsetInCU: 0x96A7, offset: 0x96A7, size: 0x8, addend: 0x0, symName: __ZNSt3__1neB8ue170006ERKNS_16__deque_iteratorI4CellPS1_RS1_PS2_lLl512EEES7_, symObjAddr: 0x3A7C, symBinAddr: 0x100004250, symSize: 0x34 }
  - { offsetInCU: 0x96E4, offset: 0x96E4, size: 0x8, addend: 0x0, symName: __ZNSt3__1eqB8ue170006ERKNS_16__deque_iteratorI4CellPS1_RS1_PS2_lLl512EEES7_, symObjAddr: 0x3C60, symBinAddr: 0x100004434, symSize: 0x30 }
  - { offsetInCU: 0x9721, offset: 0x9721, size: 0x8, addend: 0x0, symName: __ZNSt3__116__pad_and_outputB8ue170006IcNS_11char_traitsIcEEEENS_19ostreambuf_iteratorIT_T0_EES6_PKS4_S8_S8_RNS_8ios_baseES4_, symObjAddr: 0x4134, symBinAddr: 0x100004908, symSize: 0x248 }
  - { offsetInCU: 0x97F0, offset: 0x97F0, size: 0x8, addend: 0x0, symName: __ZNSt3__112__to_addressB8ue170006IKcEEPT_S3_, symObjAddr: 0x46A4, symBinAddr: 0x100004E78, symSize: 0x14 }
  - { offsetInCU: 0x9858, offset: 0x9858, size: 0x8, addend: 0x0, symName: __ZNSt3__19use_facetB8ue170006INS_5ctypeIcEEEERKT_RKNS_6localeE, symObjAddr: 0x497C, symBinAddr: 0x100005150, symSize: 0x2C }
  - { offsetInCU: 0x9C36, offset: 0x9C36, size: 0x8, addend: 0x0, symName: __ZNSt3__118__constexpr_strlenB8ue170006EPKc, symObjAddr: 0x4A14, symBinAddr: 0x1000051E8, symSize: 0x24 }
  - { offsetInCU: 0x9E63, offset: 0x9E63, size: 0x8, addend: 0x0, symName: __ZNSt3__116__input_c_stringB8ue170006IcNS_11char_traitsIcEEEERNS_13basic_istreamIT_T0_EES7_PS4_m, symObjAddr: 0x4A4C, symBinAddr: 0x100005220, symSize: 0x2C8 }
  - { offsetInCU: 0xA4B2, offset: 0xA4B2, size: 0x8, addend: 0x0, symName: __ZNSt3__13maxB8ue170006ImEERKT_S3_S3_, symObjAddr: 0x5D20, symBinAddr: 0x1000064F4, symSize: 0x2C }
  - { offsetInCU: 0xA97E, offset: 0xA97E, size: 0x8, addend: 0x0, symName: __ZNSt3__14swapB8ue170006IPPPcEEvRT_S5_, symObjAddr: 0x6350, symBinAddr: 0x100006B24, symSize: 0x3C }
  - { offsetInCU: 0xA9CF, offset: 0xA9CF, size: 0x8, addend: 0x0, symName: __ZNSt3__14moveB8ue170006IPPPcS3_EET0_T_S5_S4_, symObjAddr: 0x6434, symBinAddr: 0x100006C08, symSize: 0x40 }
  - { offsetInCU: 0xAA45, offset: 0xAA45, size: 0x8, addend: 0x0, symName: __ZNSt3__16__moveB8ue170006INS_17_ClassicAlgPolicyEPPPcS4_S4_EENS_4pairIT0_T2_EES6_T1_S7_, symObjAddr: 0x653C, symBinAddr: 0x100006D10, symSize: 0x44 }
  - { offsetInCU: 0xAAB1, offset: 0xAAB1, size: 0x8, addend: 0x0, symName: __ZNSt3__123__dispatch_copy_or_moveB8ue170006INS_17_ClassicAlgPolicyENS_11__move_loopIS1_EENS_14__move_trivialEPPPcS7_S7_EENS_4pairIT2_T4_EES9_T3_SA_, symObjAddr: 0x6580, symBinAddr: 0x100006D54, symSize: 0x44 }
  - { offsetInCU: 0xAB2F, offset: 0xAB2F, size: 0x8, addend: 0x0, symName: __ZNSt3__121__unwrap_and_dispatchB8ue170006INS_10__overloadINS_11__move_loopINS_17_ClassicAlgPolicyEEENS_14__move_trivialEEEPPPcS9_S9_Li0EEENS_4pairIT0_T2_EESB_T1_SC_, symObjAddr: 0x65C4, symBinAddr: 0x100006D98, symSize: 0xB4 }
  - { offsetInCU: 0xABBD, offset: 0xABBD, size: 0x8, addend: 0x0, symName: __ZNSt3__114__unwrap_rangeB8ue170006IPPPcS3_EENS_4pairIT0_S5_EET_S7_, symObjAddr: 0x6678, symBinAddr: 0x100006E4C, symSize: 0x60 }
  - { offsetInCU: 0xAD38, offset: 0xAD38, size: 0x8, addend: 0x0, symName: __ZNSt3__113__unwrap_iterB8ue170006IPPPcNS_18__unwrap_iter_implIS3_Lb1EEELi0EEEDTclsrT0_8__unwrapclsr3stdE7declvalIT_EEEES7_, symObjAddr: 0x6720, symBinAddr: 0x100006EF4, symSize: 0x24 }
  - { offsetInCU: 0xAD7C, offset: 0xAD7C, size: 0x8, addend: 0x0, symName: __ZNSt3__19make_pairB8ue170006IPPPcS3_EENS_4pairINS_18__unwrap_ref_decayIT_E4typeENS5_IT0_E4typeEEEOS6_OS9_, symObjAddr: 0x6744, symBinAddr: 0x100006F18, symSize: 0x38 }
  - { offsetInCU: 0xADCB, offset: 0xADCB, size: 0x8, addend: 0x0, symName: __ZNSt3__114__rewrap_rangeB8ue170006IPPPcS3_EET_S4_T0_, symObjAddr: 0x677C, symBinAddr: 0x100006F50, symSize: 0x2C }
  - { offsetInCU: 0xAE17, offset: 0xAE17, size: 0x8, addend: 0x0, symName: __ZNSt3__113__rewrap_iterB8ue170006IPPPcS3_NS_18__unwrap_iter_implIS3_Lb1EEEEET_S6_T0_, symObjAddr: 0x67A8, symBinAddr: 0x100006F7C, symSize: 0x50 }
  - { offsetInCU: 0xAE6C, offset: 0xAE6C, size: 0x8, addend: 0x0, symName: __ZNSt3__119__copy_trivial_implB8ue170006IPPcS2_EENS_4pairIPT_PT0_EES5_S5_S7_, symObjAddr: 0x67F8, symBinAddr: 0x100006FCC, symSize: 0x80 }
  - { offsetInCU: 0xAED4, offset: 0xAED4, size: 0x8, addend: 0x0, symName: __ZNSt3__119__constexpr_memmoveB8ue170006IPPcS2_Li0EEEPT_S4_PT0_NS_15__element_countE, symObjAddr: 0x6878, symBinAddr: 0x10000704C, symSize: 0xA0 }
  - { offsetInCU: 0xAF42, offset: 0xAF42, size: 0x8, addend: 0x0, symName: __ZNSt3__19make_pairB8ue170006IRPPPcS3_EENS_4pairINS_18__unwrap_ref_decayIT_E4typeENS6_IT0_E4typeEEEOS7_OSA_, symObjAddr: 0x6918, symBinAddr: 0x1000070EC, symSize: 0x38 }
  - { offsetInCU: 0xAFE4, offset: 0xAFE4, size: 0x8, addend: 0x0, symName: __ZNSt3__18distanceB8ue170006INS_13move_iteratorIPPPcEEEENS_15iterator_traitsIT_E15difference_typeES7_S7_, symObjAddr: 0x6B18, symBinAddr: 0x1000072EC, symSize: 0x3C }
  - { offsetInCU: 0xB027, offset: 0xB027, size: 0x8, addend: 0x0, symName: __ZNSt3__110__distanceB8ue170006INS_13move_iteratorIPPPcEEEENS_15iterator_traitsIT_E15difference_typeES7_S7_NS_26random_access_iterator_tagE, symObjAddr: 0x6D1C, symBinAddr: 0x1000074F0, symSize: 0x30 }
  - { offsetInCU: 0xB074, offset: 0xB074, size: 0x8, addend: 0x0, symName: __ZNSt3__1miB8ue170006IPPPcS3_EENS_13move_iteratorIT_E15difference_typeERKS6_RKNS4_IT0_EE, symObjAddr: 0x6D4C, symBinAddr: 0x100007520, symSize: 0x48 }
  - { offsetInCU: 0xB0C3, offset: 0xB0C3, size: 0x8, addend: 0x0, symName: __ZNSt3__117__libcpp_allocateB8ue170006Emm, symObjAddr: 0x6ED0, symBinAddr: 0x1000076A4, symSize: 0x28 }
  - { offsetInCU: 0xB100, offset: 0xB100, size: 0x8, addend: 0x0, symName: __ZNSt3__121__libcpp_operator_newB8ue170006IJmEEEPvDpT_, symObjAddr: 0x6F0C, symBinAddr: 0x1000076E0, symSize: 0x24 }
  - { offsetInCU: 0xB139, offset: 0xB139, size: 0x8, addend: 0x0, symName: __ZNSt3__113move_backwardB8ue170006IPPPcS3_EET0_T_S5_S4_, symObjAddr: 0x6F30, symBinAddr: 0x100007704, symSize: 0x40 }
  - { offsetInCU: 0xB193, offset: 0xB193, size: 0x8, addend: 0x0, symName: __ZNSt3__115__move_backwardB8ue170006INS_17_ClassicAlgPolicyEPPPcS4_S4_EENS_4pairIT0_T2_EES6_T1_S7_, symObjAddr: 0x6F70, symBinAddr: 0x100007744, symSize: 0x44 }
  - { offsetInCU: 0xB1FF, offset: 0xB1FF, size: 0x8, addend: 0x0, symName: __ZNSt3__123__dispatch_copy_or_moveB8ue170006INS_17_ClassicAlgPolicyENS_20__move_backward_loopIS1_EENS_23__move_backward_trivialEPPPcS7_S7_EENS_4pairIT2_T4_EES9_T3_SA_, symObjAddr: 0x6FB4, symBinAddr: 0x100007788, symSize: 0x44 }
  - { offsetInCU: 0xB27D, offset: 0xB27D, size: 0x8, addend: 0x0, symName: __ZNSt3__121__unwrap_and_dispatchB8ue170006INS_10__overloadINS_20__move_backward_loopINS_17_ClassicAlgPolicyEEENS_23__move_backward_trivialEEEPPPcS9_S9_Li0EEENS_4pairIT0_T2_EESB_T1_SC_, symObjAddr: 0x6FF8, symBinAddr: 0x1000077CC, symSize: 0xB4 }
  - { offsetInCU: 0xB38D, offset: 0xB38D, size: 0x8, addend: 0x0, symName: __ZNSt3__128__copy_backward_trivial_implB8ue170006IPPcS2_EENS_4pairIPT_PT0_EES5_S5_S7_, symObjAddr: 0x70F4, symBinAddr: 0x1000078C8, symSize: 0x90 }
  - { offsetInCU: 0xB3F5, offset: 0xB3F5, size: 0x8, addend: 0x0, symName: __ZNSt3__19make_pairB8ue170006IRPPPcS4_EENS_4pairINS_18__unwrap_ref_decayIT_E4typeENS6_IT0_E4typeEEEOS7_OSA_, symObjAddr: 0x7184, symBinAddr: 0x100007958, symSize: 0x38 }
  - { offsetInCU: 0xB444, offset: 0xB444, size: 0x8, addend: 0x0, symName: __ZNSt3__13maxB8ue170006ImNS_6__lessIvvEEEERKT_S5_S5_T0_, symObjAddr: 0x71BC, symBinAddr: 0x100007990, symSize: 0x54 }
  - { offsetInCU: 0xB4E3, offset: 0xB4E3, size: 0x8, addend: 0x0, symName: __ZNSt3__119__allocate_at_leastB8ue170006INS_9allocatorIPPcEEEENS_19__allocation_resultINS_16allocator_traitsIT_E7pointerEEERS7_m, symObjAddr: 0x7354, symBinAddr: 0x100007B28, symSize: 0x40 }
  - { offsetInCU: 0xB9AF, offset: 0xB9AF, size: 0x8, addend: 0x0, symName: __ZNSt3__14swapB8ue170006IPP4CellEEvRT_S5_, symObjAddr: 0x90A0, symBinAddr: 0x100009874, symSize: 0x3C }
  - { offsetInCU: 0xBA00, offset: 0xBA00, size: 0x8, addend: 0x0, symName: __ZNSt3__14moveB8ue170006IPP4CellS3_EET0_T_S5_S4_, symObjAddr: 0x9184, symBinAddr: 0x100009958, symSize: 0x40 }
  - { offsetInCU: 0xBA5A, offset: 0xBA5A, size: 0x8, addend: 0x0, symName: __ZNSt3__16__moveB8ue170006INS_17_ClassicAlgPolicyEPP4CellS4_S4_EENS_4pairIT0_T2_EES6_T1_S7_, symObjAddr: 0x928C, symBinAddr: 0x100009A60, symSize: 0x44 }
  - { offsetInCU: 0xBAC6, offset: 0xBAC6, size: 0x8, addend: 0x0, symName: __ZNSt3__123__dispatch_copy_or_moveB8ue170006INS_17_ClassicAlgPolicyENS_11__move_loopIS1_EENS_14__move_trivialEPP4CellS7_S7_EENS_4pairIT2_T4_EES9_T3_SA_, symObjAddr: 0x92D0, symBinAddr: 0x100009AA4, symSize: 0x44 }
  - { offsetInCU: 0xBB44, offset: 0xBB44, size: 0x8, addend: 0x0, symName: __ZNSt3__121__unwrap_and_dispatchB8ue170006INS_10__overloadINS_11__move_loopINS_17_ClassicAlgPolicyEEENS_14__move_trivialEEEPP4CellS9_S9_Li0EEENS_4pairIT0_T2_EESB_T1_SC_, symObjAddr: 0x9314, symBinAddr: 0x100009AE8, symSize: 0xB4 }
  - { offsetInCU: 0xBBD2, offset: 0xBBD2, size: 0x8, addend: 0x0, symName: __ZNSt3__114__unwrap_rangeB8ue170006IPP4CellS3_EENS_4pairIT0_S5_EET_S7_, symObjAddr: 0x93C8, symBinAddr: 0x100009B9C, symSize: 0x60 }
  - { offsetInCU: 0xBCCB, offset: 0xBCCB, size: 0x8, addend: 0x0, symName: __ZNSt3__113__unwrap_iterB8ue170006IPP4CellNS_18__unwrap_iter_implIS3_Lb1EEELi0EEEDTclsrT0_8__unwrapclsr3stdE7declvalIT_EEEES7_, symObjAddr: 0x9470, symBinAddr: 0x100009C44, symSize: 0x24 }
  - { offsetInCU: 0xBD0F, offset: 0xBD0F, size: 0x8, addend: 0x0, symName: __ZNSt3__19make_pairB8ue170006IPP4CellS3_EENS_4pairINS_18__unwrap_ref_decayIT_E4typeENS5_IT0_E4typeEEEOS6_OS9_, symObjAddr: 0x9494, symBinAddr: 0x100009C68, symSize: 0x38 }
  - { offsetInCU: 0xBD5E, offset: 0xBD5E, size: 0x8, addend: 0x0, symName: __ZNSt3__114__rewrap_rangeB8ue170006IPP4CellS3_EET_S4_T0_, symObjAddr: 0x94CC, symBinAddr: 0x100009CA0, symSize: 0x2C }
  - { offsetInCU: 0xBDAA, offset: 0xBDAA, size: 0x8, addend: 0x0, symName: __ZNSt3__113__rewrap_iterB8ue170006IPP4CellS3_NS_18__unwrap_iter_implIS3_Lb1EEEEET_S6_T0_, symObjAddr: 0x94F8, symBinAddr: 0x100009CCC, symSize: 0x50 }
  - { offsetInCU: 0xBDFF, offset: 0xBDFF, size: 0x8, addend: 0x0, symName: __ZNSt3__119__copy_trivial_implB8ue170006IP4CellS2_EENS_4pairIPT_PT0_EES5_S5_S7_, symObjAddr: 0x9548, symBinAddr: 0x100009D1C, symSize: 0x80 }
  - { offsetInCU: 0xBE67, offset: 0xBE67, size: 0x8, addend: 0x0, symName: __ZNSt3__119__constexpr_memmoveB8ue170006IP4CellS2_Li0EEEPT_S4_PT0_NS_15__element_countE, symObjAddr: 0x95C8, symBinAddr: 0x100009D9C, symSize: 0xA0 }
  - { offsetInCU: 0xBED5, offset: 0xBED5, size: 0x8, addend: 0x0, symName: __ZNSt3__19make_pairB8ue170006IRPP4CellS3_EENS_4pairINS_18__unwrap_ref_decayIT_E4typeENS6_IT0_E4typeEEEOS7_OSA_, symObjAddr: 0x9668, symBinAddr: 0x100009E3C, symSize: 0x38 }
  - { offsetInCU: 0xBF77, offset: 0xBF77, size: 0x8, addend: 0x0, symName: __ZNSt3__18distanceB8ue170006INS_13move_iteratorIPP4CellEEEENS_15iterator_traitsIT_E15difference_typeES7_S7_, symObjAddr: 0x9868, symBinAddr: 0x10000A03C, symSize: 0x3C }
  - { offsetInCU: 0xBFBA, offset: 0xBFBA, size: 0x8, addend: 0x0, symName: __ZNSt3__110__distanceB8ue170006INS_13move_iteratorIPP4CellEEEENS_15iterator_traitsIT_E15difference_typeES7_S7_NS_26random_access_iterator_tagE, symObjAddr: 0x9A6C, symBinAddr: 0x10000A240, symSize: 0x30 }
  - { offsetInCU: 0xC007, offset: 0xC007, size: 0x8, addend: 0x0, symName: __ZNSt3__1miB8ue170006IPP4CellS3_EENS_13move_iteratorIT_E15difference_typeERKS6_RKNS4_IT0_EE, symObjAddr: 0x9A9C, symBinAddr: 0x10000A270, symSize: 0x48 }
  - { offsetInCU: 0xC056, offset: 0xC056, size: 0x8, addend: 0x0, symName: __ZNSt3__113move_backwardB8ue170006IPP4CellS3_EET0_T_S5_S4_, symObjAddr: 0x9C00, symBinAddr: 0x10000A3D4, symSize: 0x40 }
  - { offsetInCU: 0xC0B0, offset: 0xC0B0, size: 0x8, addend: 0x0, symName: __ZNSt3__115__move_backwardB8ue170006INS_17_ClassicAlgPolicyEPP4CellS4_S4_EENS_4pairIT0_T2_EES6_T1_S7_, symObjAddr: 0x9C40, symBinAddr: 0x10000A414, symSize: 0x44 }
  - { offsetInCU: 0xC11C, offset: 0xC11C, size: 0x8, addend: 0x0, symName: __ZNSt3__123__dispatch_copy_or_moveB8ue170006INS_17_ClassicAlgPolicyENS_20__move_backward_loopIS1_EENS_23__move_backward_trivialEPP4CellS7_S7_EENS_4pairIT2_T4_EES9_T3_SA_, symObjAddr: 0x9C84, symBinAddr: 0x10000A458, symSize: 0x44 }
  - { offsetInCU: 0xC19A, offset: 0xC19A, size: 0x8, addend: 0x0, symName: __ZNSt3__121__unwrap_and_dispatchB8ue170006INS_10__overloadINS_20__move_backward_loopINS_17_ClassicAlgPolicyEEENS_23__move_backward_trivialEEEPP4CellS9_S9_Li0EEENS_4pairIT0_T2_EESB_T1_SC_, symObjAddr: 0x9CC8, symBinAddr: 0x10000A49C, symSize: 0xB4 }
  - { offsetInCU: 0xC228, offset: 0xC228, size: 0x8, addend: 0x0, symName: __ZNSt3__128__copy_backward_trivial_implB8ue170006IP4CellS2_EENS_4pairIPT_PT0_EES5_S5_S7_, symObjAddr: 0x9DC4, symBinAddr: 0x10000A598, symSize: 0x90 }
  - { offsetInCU: 0xC290, offset: 0xC290, size: 0x8, addend: 0x0, symName: __ZNSt3__19make_pairB8ue170006IRPP4CellS4_EENS_4pairINS_18__unwrap_ref_decayIT_E4typeENS6_IT0_E4typeEEEOS7_OSA_, symObjAddr: 0x9E54, symBinAddr: 0x10000A628, symSize: 0x38 }
  - { offsetInCU: 0xC2DF, offset: 0xC2DF, size: 0x8, addend: 0x0, symName: __ZNSt3__119__allocate_at_leastB8ue170006INS_9allocatorIP4CellEEEENS_19__allocation_resultINS_16allocator_traitsIT_E7pointerEEERS7_m, symObjAddr: 0x9F9C, symBinAddr: 0x10000A770, symSize: 0x40 }
  - { offsetInCU: 0xC496, offset: 0xC496, size: 0x8, addend: 0x0, symName: __ZSt28__throw_bad_array_new_lengthB8ue170006v, symObjAddr: 0x6E9C, symBinAddr: 0x100007670, symSize: 0x34 }
  - { offsetInCU: 0xD406, offset: 0xD406, size: 0x8, addend: 0x0, symName: __Z6strchrB8ue170006Ua9enable_ifIXLb1EEEPci, symObjAddr: 0x714, symBinAddr: 0x100000EE8, symSize: 0x2C }
  - { offsetInCU: 0xF19C, offset: 0xF19C, size: 0x8, addend: 0x0, symName: __ZN4MazeC2Ev, symObjAddr: 0x0, symBinAddr: 0x1000007D4, symSize: 0x54C }
  - { offsetInCU: 0xF219, offset: 0xF219, size: 0x8, addend: 0x0, symName: __ZN4CellC1Eii, symObjAddr: 0x54C, symBinAddr: 0x100000D20, symSize: 0x3C }
  - { offsetInCU: 0xF25F, offset: 0xF25F, size: 0x8, addend: 0x0, symName: __ZN5StackI4CellEC1Ev, symObjAddr: 0x588, symBinAddr: 0x100000D5C, symSize: 0x2C }
  - { offsetInCU: 0xF305, offset: 0xF305, size: 0x8, addend: 0x0, symName: __ZN5StackIPcEC1Ev, symObjAddr: 0x5B4, symBinAddr: 0x100000D88, symSize: 0x2C }
  - { offsetInCU: 0xF331, offset: 0xF331, size: 0x8, addend: 0x0, symName: __ZNKSt3__19basic_iosIcNS_11char_traitsIcEEEcvPvB8ue170006Ev, symObjAddr: 0x69C, symBinAddr: 0x100000E70, symSize: 0x4C }
  - { offsetInCU: 0xF357, offset: 0xF357, size: 0x8, addend: 0x0, symName: __ZNSt3__15stackIPcNS_5dequeIS1_NS_9allocatorIS1_EEEEE4pushB8ue170006ERKS1_, symObjAddr: 0x6E8, symBinAddr: 0x100000EBC, symSize: 0x2C }
  - { offsetInCU: 0xF38C, offset: 0xF38C, size: 0x8, addend: 0x0, symName: __ZNKSt3__15stackIPcNS_5dequeIS1_NS_9allocatorIS1_EEEEE5emptyB8ue170006Ev, symObjAddr: 0x740, symBinAddr: 0x100000F14, symSize: 0x28 }
  - { offsetInCU: 0xF3B2, offset: 0xF3B2, size: 0x8, addend: 0x0, symName: __ZN5StackIPcE3popEv, symObjAddr: 0x768, symBinAddr: 0x100000F3C, symSize: 0x40 }
  - { offsetInCU: 0xF3E6, offset: 0xF3E6, size: 0x8, addend: 0x0, symName: __ZN5StackIPcED1Ev, symObjAddr: 0x7A8, symBinAddr: 0x100000F7C, symSize: 0x2C }
  - { offsetInCU: 0xF412, offset: 0xF412, size: 0x8, addend: 0x0, symName: __ZN5StackI4CellED1Ev, symObjAddr: 0x7E0, symBinAddr: 0x100000FB4, symSize: 0x2C }
  - { offsetInCU: 0xF43E, offset: 0xF43E, size: 0x8, addend: 0x0, symName: __ZN4MazeC1Ev, symObjAddr: 0x80C, symBinAddr: 0x100000FE0, symSize: 0x2C }
  - { offsetInCU: 0xF469, offset: 0xF469, size: 0x8, addend: 0x0, symName: __ZN4Maze13pushUnvisitedEii, symObjAddr: 0x838, symBinAddr: 0x10000100C, symSize: 0xB0 }
  - { offsetInCU: 0xF4AC, offset: 0xF4AC, size: 0x8, addend: 0x0, symName: __ZNSt3__15stackI4CellNS_5dequeIS1_NS_9allocatorIS1_EEEEE4pushB8ue170006ERKS1_, symObjAddr: 0x8E8, symBinAddr: 0x1000010BC, symSize: 0x2C }
  - { offsetInCU: 0xF4E1, offset: 0xF4E1, size: 0x8, addend: 0x0, symName: __ZN4Maze8exitMazeEv, symObjAddr: 0x914, symBinAddr: 0x1000010E8, symSize: 0x16C }
  - { offsetInCU: 0xF524, offset: 0xF524, size: 0x8, addend: 0x0, symName: __ZNK4CelleqERKS_, symObjAddr: 0xA80, symBinAddr: 0x100001254, symSize: 0x68 }
  - { offsetInCU: 0xF557, offset: 0xF557, size: 0x8, addend: 0x0, symName: __ZlsRNSt3__113basic_ostreamIcNS_11char_traitsIcEEEERK4Maze, symObjAddr: 0xAE8, symBinAddr: 0x1000012BC, symSize: 0x94 }
  - { offsetInCU: 0xF5AF, offset: 0xF5AF, size: 0x8, addend: 0x0, symName: __ZNKSt3__15stackI4CellNS_5dequeIS1_NS_9allocatorIS1_EEEEE5emptyB8ue170006Ev, symObjAddr: 0xB7C, symBinAddr: 0x100001350, symSize: 0x28 }
  - { offsetInCU: 0xF5D5, offset: 0xF5D5, size: 0x8, addend: 0x0, symName: __ZN5StackI4CellE3popEv, symObjAddr: 0xBA4, symBinAddr: 0x100001378, symSize: 0x40 }
  - { offsetInCU: 0xF609, offset: 0xF609, size: 0x8, addend: 0x0, symName: __ZNSt3__113basic_ostreamIcNS_11char_traitsIcEEElsB8ue170006EPFRS3_S4_E, symObjAddr: 0xBE4, symBinAddr: 0x1000013B8, symSize: 0x2C }
  - { offsetInCU: 0xF63D, offset: 0xF63D, size: 0x8, addend: 0x0, symName: _main, symObjAddr: 0xC68, symBinAddr: 0x10000143C, symSize: 0x68 }
  - { offsetInCU: 0xF657, offset: 0xF657, size: 0x8, addend: 0x0, symName: __ZN4MazeD1Ev, symObjAddr: 0xCD0, symBinAddr: 0x1000014A4, symSize: 0x2C }
  - { offsetInCU: 0xF683, offset: 0xF683, size: 0x8, addend: 0x0, symName: __ZN4CellC2Eii, symObjAddr: 0xCFC, symBinAddr: 0x1000014D0, symSize: 0x2C }
  - { offsetInCU: 0xF6C9, offset: 0xF6C9, size: 0x8, addend: 0x0, symName: __ZN5StackI4CellEC2Ev, symObjAddr: 0xD28, symBinAddr: 0x1000014FC, symSize: 0x2C }
  - { offsetInCU: 0xF6F5, offset: 0xF6F5, size: 0x8, addend: 0x0, symName: __ZNSt3__15stackI4CellNS_5dequeIS1_NS_9allocatorIS1_EEEEEC2B8ue170006Ev, symObjAddr: 0xD54, symBinAddr: 0x100001528, symSize: 0x2C }
  - { offsetInCU: 0xF71F, offset: 0xF71F, size: 0x8, addend: 0x0, symName: __ZNSt3__15dequeI4CellNS_9allocatorIS1_EEEC1B8ue170006Ev, symObjAddr: 0xD80, symBinAddr: 0x100001554, symSize: 0x2C }
  - { offsetInCU: 0xF749, offset: 0xF749, size: 0x8, addend: 0x0, symName: __ZNSt3__15dequeI4CellNS_9allocatorIS1_EEEC2B8ue170006Ev, symObjAddr: 0xDAC, symBinAddr: 0x100001580, symSize: 0x84 }
  - { offsetInCU: 0xF773, offset: 0xF773, size: 0x8, addend: 0x0, symName: __ZNSt3__114__split_bufferIP4CellNS_9allocatorIS2_EEEC1B8ue170006Ev, symObjAddr: 0xE30, symBinAddr: 0x100001604, symSize: 0x2C }
  - { offsetInCU: 0xF7A7, offset: 0xF7A7, size: 0x8, addend: 0x0, symName: __ZNSt3__117__compressed_pairImNS_9allocatorI4CellEEEC1B8ue170006IiNS_18__default_init_tagEEEOT_OT0_, symObjAddr: 0xE5C, symBinAddr: 0x100001630, symSize: 0x3C }
  - { offsetInCU: 0xF7FF, offset: 0xF7FF, size: 0x8, addend: 0x0, symName: __ZNKSt3__15dequeI4CellNS_9allocatorIS1_EEE14__annotate_newB8ue170006Em, symObjAddr: 0xE98, symBinAddr: 0x10000166C, symSize: 0xDC }
  - { offsetInCU: 0xF834, offset: 0xF834, size: 0x8, addend: 0x0, symName: __ZNSt3__114__split_bufferIP4CellNS_9allocatorIS2_EEED1Ev, symObjAddr: 0xF74, symBinAddr: 0x100001748, symSize: 0x2C }
  - { offsetInCU: 0xF860, offset: 0xF860, size: 0x8, addend: 0x0, symName: __ZNSt3__114__split_bufferIP4CellNS_9allocatorIS2_EEEC2B8ue170006Ev, symObjAddr: 0xFA0, symBinAddr: 0x100001774, symSize: 0x48 }
  - { offsetInCU: 0xF88F, offset: 0xF88F, size: 0x8, addend: 0x0, symName: __ZNSt3__117__compressed_pairIPP4CellNS_9allocatorIS2_EEEC1B8ue170006IDnNS_18__default_init_tagEEEOT_OT0_, symObjAddr: 0xFE8, symBinAddr: 0x1000017BC, symSize: 0x3C }
  - { offsetInCU: 0xF8E7, offset: 0xF8E7, size: 0x8, addend: 0x0, symName: __ZNSt3__117__compressed_pairIPP4CellNS_9allocatorIS2_EEEC2B8ue170006IDnNS_18__default_init_tagEEEOT_OT0_, symObjAddr: 0x1024, symBinAddr: 0x1000017F8, symSize: 0x40 }
  - { offsetInCU: 0xF93F, offset: 0xF93F, size: 0x8, addend: 0x0, symName: __ZNSt3__122__compressed_pair_elemIPP4CellLi0ELb0EEC2B8ue170006IDnvEEOT_, symObjAddr: 0x1064, symBinAddr: 0x100001838, symSize: 0x1C }
  - { offsetInCU: 0xF981, offset: 0xF981, size: 0x8, addend: 0x0, symName: __ZNSt3__122__compressed_pair_elemINS_9allocatorIP4CellEELi1ELb1EEC2B8ue170006ENS_18__default_init_tagE, symObjAddr: 0x1080, symBinAddr: 0x100001854, symSize: 0x2C }
  - { offsetInCU: 0xF9B5, offset: 0xF9B5, size: 0x8, addend: 0x0, symName: __ZNSt3__19allocatorIP4CellEC2B8ue170006Ev, symObjAddr: 0x10AC, symBinAddr: 0x100001880, symSize: 0x2C }
  - { offsetInCU: 0xF9DF, offset: 0xF9DF, size: 0x8, addend: 0x0, symName: __ZNSt3__116__non_trivial_ifILb1ENS_9allocatorIP4CellEEEC2B8ue170006Ev, symObjAddr: 0x10D8, symBinAddr: 0x1000018AC, symSize: 0x14 }
  - { offsetInCU: 0xFA09, offset: 0xFA09, size: 0x8, addend: 0x0, symName: __ZNSt3__117__compressed_pairImNS_9allocatorI4CellEEEC2B8ue170006IiNS_18__default_init_tagEEEOT_OT0_, symObjAddr: 0x10EC, symBinAddr: 0x1000018C0, symSize: 0x40 }
  - { offsetInCU: 0xFA61, offset: 0xFA61, size: 0x8, addend: 0x0, symName: __ZNSt3__122__compressed_pair_elemImLi0ELb0EEC2B8ue170006IivEEOT_, symObjAddr: 0x112C, symBinAddr: 0x100001900, symSize: 0x24 }
  - { offsetInCU: 0xFAA3, offset: 0xFAA3, size: 0x8, addend: 0x0, symName: __ZNSt3__122__compressed_pair_elemINS_9allocatorI4CellEELi1ELb1EEC2B8ue170006ENS_18__default_init_tagE, symObjAddr: 0x1150, symBinAddr: 0x100001924, symSize: 0x2C }
  - { offsetInCU: 0xFAD7, offset: 0xFAD7, size: 0x8, addend: 0x0, symName: __ZNSt3__19allocatorI4CellEC2B8ue170006Ev, symObjAddr: 0x117C, symBinAddr: 0x100001950, symSize: 0x2C }
  - { offsetInCU: 0xFB01, offset: 0xFB01, size: 0x8, addend: 0x0, symName: __ZNSt3__116__non_trivial_ifILb1ENS_9allocatorI4CellEEEC2B8ue170006Ev, symObjAddr: 0x11A8, symBinAddr: 0x10000197C, symSize: 0x14 }
  - { offsetInCU: 0xFB2B, offset: 0xFB2B, size: 0x8, addend: 0x0, symName: __ZNKSt3__15dequeI4CellNS_9allocatorIS1_EEE18__annotate_from_toB8ue170006EmmNS4_22__asan_annotation_typeENS4_23__asan_annotation_placeE, symObjAddr: 0x11BC, symBinAddr: 0x100001990, symSize: 0x580 }
  - { offsetInCU: 0xFCE9, offset: 0xFCE9, size: 0x8, addend: 0x0, symName: __ZNKSt3__114__split_bufferIP4CellNS_9allocatorIS2_EEE4sizeB8ue170006Ev, symObjAddr: 0x173C, symBinAddr: 0x100001F10, symSize: 0x28 }
  - { offsetInCU: 0xFD0F, offset: 0xFD0F, size: 0x8, addend: 0x0, symName: __ZNKSt3__114__split_bufferIP4CellNS_9allocatorIS2_EEE5beginB8ue170006Ev, symObjAddr: 0x1764, symBinAddr: 0x100001F38, symSize: 0x18 }
  - { offsetInCU: 0xFD35, offset: 0xFD35, size: 0x8, addend: 0x0, symName: __ZNKSt3__15dequeI4CellNS_9allocatorIS1_EEE4sizeB8ue170006Ev, symObjAddr: 0x177C, symBinAddr: 0x100001F50, symSize: 0x28 }
  - { offsetInCU: 0xFD5B, offset: 0xFD5B, size: 0x8, addend: 0x0, symName: __ZNKSt3__15dequeI4CellNS_9allocatorIS1_EEE5emptyB8ue170006Ev, symObjAddr: 0x17A4, symBinAddr: 0x100001F78, symSize: 0x30 }
  - { offsetInCU: 0xFD81, offset: 0xFD81, size: 0x8, addend: 0x0, symName: __ZNKSt3__15dequeI4CellNS_9allocatorIS1_EEE44__annotate_double_ended_contiguous_containerB8ue170006EPKvS6_S6_S6_S6_S6_, symObjAddr: 0x17E8, symBinAddr: 0x100001FBC, symSize: 0x28 }
  - { offsetInCU: 0xFDEF, offset: 0xFDEF, size: 0x8, addend: 0x0, symName: __ZNKSt3__15dequeI4CellNS_9allocatorIS1_EEE6__sizeB8ue170006Ev, symObjAddr: 0x1810, symBinAddr: 0x100001FE4, symSize: 0x28 }
  - { offsetInCU: 0xFE15, offset: 0xFE15, size: 0x8, addend: 0x0, symName: __ZNKSt3__117__compressed_pairImNS_9allocatorI4CellEEE5firstB8ue170006Ev, symObjAddr: 0x1838, symBinAddr: 0x10000200C, symSize: 0x24 }
  - { offsetInCU: 0xFE3B, offset: 0xFE3B, size: 0x8, addend: 0x0, symName: __ZNKSt3__122__compressed_pair_elemImLi0ELb0EE5__getB8ue170006Ev, symObjAddr: 0x185C, symBinAddr: 0x100002030, symSize: 0x14 }
  - { offsetInCU: 0xFE61, offset: 0xFE61, size: 0x8, addend: 0x0, symName: __ZNSt3__114__split_bufferIP4CellNS_9allocatorIS2_EEED2Ev, symObjAddr: 0x1870, symBinAddr: 0x100002044, symSize: 0x80 }
  - { offsetInCU: 0xFE8D, offset: 0xFE8D, size: 0x8, addend: 0x0, symName: __ZNSt3__114__split_bufferIP4CellNS_9allocatorIS2_EEE5clearB8ue170006Ev, symObjAddr: 0x18F0, symBinAddr: 0x1000020C4, symSize: 0x28 }
  - { offsetInCU: 0xFEB3, offset: 0xFEB3, size: 0x8, addend: 0x0, symName: __ZNSt3__116allocator_traitsINS_9allocatorIP4CellEEE10deallocateB8ue170006ERS4_PS3_m, symObjAddr: 0x1918, symBinAddr: 0x1000020EC, symSize: 0x34 }
  - { offsetInCU: 0xFEF5, offset: 0xFEF5, size: 0x8, addend: 0x0, symName: __ZNSt3__114__split_bufferIP4CellNS_9allocatorIS2_EEE7__allocB8ue170006Ev, symObjAddr: 0x194C, symBinAddr: 0x100002120, symSize: 0x28 }
  - { offsetInCU: 0xFF1B, offset: 0xFF1B, size: 0x8, addend: 0x0, symName: __ZNKSt3__114__split_bufferIP4CellNS_9allocatorIS2_EEE8capacityB8ue170006Ev, symObjAddr: 0x1974, symBinAddr: 0x100002148, symSize: 0x40 }
  - { offsetInCU: 0xFF41, offset: 0xFF41, size: 0x8, addend: 0x0, symName: __ZNSt3__114__split_bufferIP4CellNS_9allocatorIS2_EEE17__destruct_at_endB8ue170006EPS2_, symObjAddr: 0x19B4, symBinAddr: 0x100002188, symSize: 0x2C }
  - { offsetInCU: 0xFF75, offset: 0xFF75, size: 0x8, addend: 0x0, symName: __ZNSt3__114__split_bufferIP4CellNS_9allocatorIS2_EEE17__destruct_at_endB8ue170006EPS2_NS_17integral_constantIbLb0EEE, symObjAddr: 0x19E0, symBinAddr: 0x1000021B4, symSize: 0x94 }
  - { offsetInCU: 0xFFB5, offset: 0xFFB5, size: 0x8, addend: 0x0, symName: __ZNSt3__116allocator_traitsINS_9allocatorIP4CellEEE7destroyB8ue170006IS3_vEEvRS4_PT_, symObjAddr: 0x1A74, symBinAddr: 0x100002248, symSize: 0x2C }
  - { offsetInCU: 0xFFF2, offset: 0xFFF2, size: 0x8, addend: 0x0, symName: __ZNSt3__19allocatorIP4CellE7destroyB8ue170006EPS2_, symObjAddr: 0x1AB4, symBinAddr: 0x100002288, symSize: 0x14 }
  - { offsetInCU: 0x10026, offset: 0x10026, size: 0x8, addend: 0x0, symName: __ZNSt3__19allocatorIP4CellE10deallocateB8ue170006EPS2_m, symObjAddr: 0x1AC8, symBinAddr: 0x10000229C, symSize: 0x70 }
  - { offsetInCU: 0x10068, offset: 0x10068, size: 0x8, addend: 0x0, symName: __ZNSt3__117__compressed_pairIPP4CellNS_9allocatorIS2_EEE6secondB8ue170006Ev, symObjAddr: 0x1BC0, symBinAddr: 0x100002394, symSize: 0x24 }
  - { offsetInCU: 0x1008E, offset: 0x1008E, size: 0x8, addend: 0x0, symName: __ZNSt3__122__compressed_pair_elemINS_9allocatorIP4CellEELi1ELb1EE5__getB8ue170006Ev, symObjAddr: 0x1BE4, symBinAddr: 0x1000023B8, symSize: 0x14 }
  - { offsetInCU: 0x100B4, offset: 0x100B4, size: 0x8, addend: 0x0, symName: __ZNKSt3__114__split_bufferIP4CellNS_9allocatorIS2_EEE9__end_capB8ue170006Ev, symObjAddr: 0x1BF8, symBinAddr: 0x1000023CC, symSize: 0x28 }
  - { offsetInCU: 0x100DA, offset: 0x100DA, size: 0x8, addend: 0x0, symName: __ZNKSt3__117__compressed_pairIPP4CellNS_9allocatorIS2_EEE5firstB8ue170006Ev, symObjAddr: 0x1C20, symBinAddr: 0x1000023F4, symSize: 0x24 }
  - { offsetInCU: 0x10100, offset: 0x10100, size: 0x8, addend: 0x0, symName: __ZNKSt3__122__compressed_pair_elemIPP4CellLi0ELb0EE5__getB8ue170006Ev, symObjAddr: 0x1C44, symBinAddr: 0x100002418, symSize: 0x14 }
  - { offsetInCU: 0x10126, offset: 0x10126, size: 0x8, addend: 0x0, symName: __ZN5StackIPcEC2Ev, symObjAddr: 0x1C58, symBinAddr: 0x10000242C, symSize: 0x2C }
  - { offsetInCU: 0x10152, offset: 0x10152, size: 0x8, addend: 0x0, symName: __ZNSt3__15stackIPcNS_5dequeIS1_NS_9allocatorIS1_EEEEEC2B8ue170006Ev, symObjAddr: 0x1C84, symBinAddr: 0x100002458, symSize: 0x2C }
  - { offsetInCU: 0x1017C, offset: 0x1017C, size: 0x8, addend: 0x0, symName: __ZNSt3__15dequeIPcNS_9allocatorIS1_EEEC1B8ue170006Ev, symObjAddr: 0x1CB0, symBinAddr: 0x100002484, symSize: 0x2C }
  - { offsetInCU: 0x101A6, offset: 0x101A6, size: 0x8, addend: 0x0, symName: __ZNSt3__15dequeIPcNS_9allocatorIS1_EEEC2B8ue170006Ev, symObjAddr: 0x1CDC, symBinAddr: 0x1000024B0, symSize: 0x84 }
  - { offsetInCU: 0x101D0, offset: 0x101D0, size: 0x8, addend: 0x0, symName: __ZNSt3__114__split_bufferIPPcNS_9allocatorIS2_EEEC1B8ue170006Ev, symObjAddr: 0x1D60, symBinAddr: 0x100002534, symSize: 0x2C }
  - { offsetInCU: 0x101FA, offset: 0x101FA, size: 0x8, addend: 0x0, symName: __ZNSt3__117__compressed_pairImNS_9allocatorIPcEEEC1B8ue170006IiNS_18__default_init_tagEEEOT_OT0_, symObjAddr: 0x1D8C, symBinAddr: 0x100002560, symSize: 0x3C }
  - { offsetInCU: 0x10252, offset: 0x10252, size: 0x8, addend: 0x0, symName: __ZNKSt3__15dequeIPcNS_9allocatorIS1_EEE14__annotate_newB8ue170006Em, symObjAddr: 0x1DC8, symBinAddr: 0x10000259C, symSize: 0xDC }
  - { offsetInCU: 0x10287, offset: 0x10287, size: 0x8, addend: 0x0, symName: __ZNSt3__114__split_bufferIPPcNS_9allocatorIS2_EEED1Ev, symObjAddr: 0x1EA4, symBinAddr: 0x100002678, symSize: 0x2C }
  - { offsetInCU: 0x102B3, offset: 0x102B3, size: 0x8, addend: 0x0, symName: __ZNSt3__114__split_bufferIPPcNS_9allocatorIS2_EEEC2B8ue170006Ev, symObjAddr: 0x1ED0, symBinAddr: 0x1000026A4, symSize: 0x48 }
  - { offsetInCU: 0x102DD, offset: 0x102DD, size: 0x8, addend: 0x0, symName: __ZNSt3__117__compressed_pairIPPPcNS_9allocatorIS2_EEEC1B8ue170006IDnNS_18__default_init_tagEEEOT_OT0_, symObjAddr: 0x1F18, symBinAddr: 0x1000026EC, symSize: 0x3C }
  - { offsetInCU: 0x10335, offset: 0x10335, size: 0x8, addend: 0x0, symName: __ZNSt3__117__compressed_pairIPPPcNS_9allocatorIS2_EEEC2B8ue170006IDnNS_18__default_init_tagEEEOT_OT0_, symObjAddr: 0x1F54, symBinAddr: 0x100002728, symSize: 0x40 }
  - { offsetInCU: 0x1038D, offset: 0x1038D, size: 0x8, addend: 0x0, symName: __ZNSt3__122__compressed_pair_elemIPPPcLi0ELb0EEC2B8ue170006IDnvEEOT_, symObjAddr: 0x1F94, symBinAddr: 0x100002768, symSize: 0x1C }
  - { offsetInCU: 0x103CF, offset: 0x103CF, size: 0x8, addend: 0x0, symName: __ZNSt3__122__compressed_pair_elemINS_9allocatorIPPcEELi1ELb1EEC2B8ue170006ENS_18__default_init_tagE, symObjAddr: 0x1FB0, symBinAddr: 0x100002784, symSize: 0x2C }
  - { offsetInCU: 0x10403, offset: 0x10403, size: 0x8, addend: 0x0, symName: __ZNSt3__19allocatorIPPcEC2B8ue170006Ev, symObjAddr: 0x1FDC, symBinAddr: 0x1000027B0, symSize: 0x2C }
  - { offsetInCU: 0x1042D, offset: 0x1042D, size: 0x8, addend: 0x0, symName: __ZNSt3__116__non_trivial_ifILb1ENS_9allocatorIPPcEEEC2B8ue170006Ev, symObjAddr: 0x2008, symBinAddr: 0x1000027DC, symSize: 0x14 }
  - { offsetInCU: 0x10457, offset: 0x10457, size: 0x8, addend: 0x0, symName: __ZNSt3__117__compressed_pairImNS_9allocatorIPcEEEC2B8ue170006IiNS_18__default_init_tagEEEOT_OT0_, symObjAddr: 0x201C, symBinAddr: 0x1000027F0, symSize: 0x40 }
  - { offsetInCU: 0x104AF, offset: 0x104AF, size: 0x8, addend: 0x0, symName: __ZNSt3__122__compressed_pair_elemINS_9allocatorIPcEELi1ELb1EEC2B8ue170006ENS_18__default_init_tagE, symObjAddr: 0x205C, symBinAddr: 0x100002830, symSize: 0x2C }
  - { offsetInCU: 0x104E3, offset: 0x104E3, size: 0x8, addend: 0x0, symName: __ZNSt3__19allocatorIPcEC2B8ue170006Ev, symObjAddr: 0x2088, symBinAddr: 0x10000285C, symSize: 0x2C }
  - { offsetInCU: 0x1050D, offset: 0x1050D, size: 0x8, addend: 0x0, symName: __ZNSt3__116__non_trivial_ifILb1ENS_9allocatorIPcEEEC2B8ue170006Ev, symObjAddr: 0x20B4, symBinAddr: 0x100002888, symSize: 0x14 }
  - { offsetInCU: 0x10537, offset: 0x10537, size: 0x8, addend: 0x0, symName: __ZNKSt3__15dequeIPcNS_9allocatorIS1_EEE18__annotate_from_toB8ue170006EmmNS4_22__asan_annotation_typeENS4_23__asan_annotation_placeE, symObjAddr: 0x20C8, symBinAddr: 0x10000289C, symSize: 0x580 }
  - { offsetInCU: 0x106F5, offset: 0x106F5, size: 0x8, addend: 0x0, symName: __ZNKSt3__114__split_bufferIPPcNS_9allocatorIS2_EEE4sizeB8ue170006Ev, symObjAddr: 0x2648, symBinAddr: 0x100002E1C, symSize: 0x28 }
  - { offsetInCU: 0x1071B, offset: 0x1071B, size: 0x8, addend: 0x0, symName: __ZNKSt3__114__split_bufferIPPcNS_9allocatorIS2_EEE5beginB8ue170006Ev, symObjAddr: 0x2670, symBinAddr: 0x100002E44, symSize: 0x18 }
  - { offsetInCU: 0x10741, offset: 0x10741, size: 0x8, addend: 0x0, symName: __ZNKSt3__15dequeIPcNS_9allocatorIS1_EEE4sizeB8ue170006Ev, symObjAddr: 0x2688, symBinAddr: 0x100002E5C, symSize: 0x28 }
  - { offsetInCU: 0x10767, offset: 0x10767, size: 0x8, addend: 0x0, symName: __ZNKSt3__15dequeIPcNS_9allocatorIS1_EEE5emptyB8ue170006Ev, symObjAddr: 0x26B0, symBinAddr: 0x100002E84, symSize: 0x30 }
  - { offsetInCU: 0x1078D, offset: 0x1078D, size: 0x8, addend: 0x0, symName: __ZNKSt3__15dequeIPcNS_9allocatorIS1_EEE44__annotate_double_ended_contiguous_containerB8ue170006EPKvS6_S6_S6_S6_S6_, symObjAddr: 0x26F4, symBinAddr: 0x100002EC8, symSize: 0x28 }
  - { offsetInCU: 0x107FB, offset: 0x107FB, size: 0x8, addend: 0x0, symName: __ZNKSt3__15dequeIPcNS_9allocatorIS1_EEE6__sizeB8ue170006Ev, symObjAddr: 0x271C, symBinAddr: 0x100002EF0, symSize: 0x28 }
  - { offsetInCU: 0x10821, offset: 0x10821, size: 0x8, addend: 0x0, symName: __ZNKSt3__117__compressed_pairImNS_9allocatorIPcEEE5firstB8ue170006Ev, symObjAddr: 0x2744, symBinAddr: 0x100002F18, symSize: 0x24 }
  - { offsetInCU: 0x10847, offset: 0x10847, size: 0x8, addend: 0x0, symName: __ZNSt3__114__split_bufferIPPcNS_9allocatorIS2_EEED2Ev, symObjAddr: 0x2768, symBinAddr: 0x100002F3C, symSize: 0x80 }
  - { offsetInCU: 0x10873, offset: 0x10873, size: 0x8, addend: 0x0, symName: __ZNSt3__114__split_bufferIPPcNS_9allocatorIS2_EEE5clearB8ue170006Ev, symObjAddr: 0x27E8, symBinAddr: 0x100002FBC, symSize: 0x28 }
  - { offsetInCU: 0x10899, offset: 0x10899, size: 0x8, addend: 0x0, symName: __ZNSt3__116allocator_traitsINS_9allocatorIPPcEEE10deallocateB8ue170006ERS4_PS3_m, symObjAddr: 0x2810, symBinAddr: 0x100002FE4, symSize: 0x34 }
  - { offsetInCU: 0x108DB, offset: 0x108DB, size: 0x8, addend: 0x0, symName: __ZNSt3__114__split_bufferIPPcNS_9allocatorIS2_EEE7__allocB8ue170006Ev, symObjAddr: 0x2844, symBinAddr: 0x100003018, symSize: 0x28 }
  - { offsetInCU: 0x10901, offset: 0x10901, size: 0x8, addend: 0x0, symName: __ZNKSt3__114__split_bufferIPPcNS_9allocatorIS2_EEE8capacityB8ue170006Ev, symObjAddr: 0x286C, symBinAddr: 0x100003040, symSize: 0x40 }
  - { offsetInCU: 0x10927, offset: 0x10927, size: 0x8, addend: 0x0, symName: __ZNSt3__114__split_bufferIPPcNS_9allocatorIS2_EEE17__destruct_at_endB8ue170006EPS2_, symObjAddr: 0x28AC, symBinAddr: 0x100003080, symSize: 0x2C }
  - { offsetInCU: 0x1095B, offset: 0x1095B, size: 0x8, addend: 0x0, symName: __ZNSt3__114__split_bufferIPPcNS_9allocatorIS2_EEE17__destruct_at_endB8ue170006EPS2_NS_17integral_constantIbLb0EEE, symObjAddr: 0x28D8, symBinAddr: 0x1000030AC, symSize: 0x94 }
  - { offsetInCU: 0x1099B, offset: 0x1099B, size: 0x8, addend: 0x0, symName: __ZNSt3__116allocator_traitsINS_9allocatorIPPcEEE7destroyB8ue170006IS3_vEEvRS4_PT_, symObjAddr: 0x296C, symBinAddr: 0x100003140, symSize: 0x2C }
  - { offsetInCU: 0x109D8, offset: 0x109D8, size: 0x8, addend: 0x0, symName: __ZNSt3__19allocatorIPPcE7destroyB8ue170006EPS2_, symObjAddr: 0x29AC, symBinAddr: 0x100003180, symSize: 0x14 }
  - { offsetInCU: 0x10A0C, offset: 0x10A0C, size: 0x8, addend: 0x0, symName: __ZNSt3__19allocatorIPPcE10deallocateB8ue170006EPS2_m, symObjAddr: 0x29C0, symBinAddr: 0x100003194, symSize: 0x70 }
  - { offsetInCU: 0x10A4E, offset: 0x10A4E, size: 0x8, addend: 0x0, symName: __ZNSt3__117__compressed_pairIPPPcNS_9allocatorIS2_EEE6secondB8ue170006Ev, symObjAddr: 0x2A30, symBinAddr: 0x100003204, symSize: 0x24 }
  - { offsetInCU: 0x10A74, offset: 0x10A74, size: 0x8, addend: 0x0, symName: __ZNSt3__122__compressed_pair_elemINS_9allocatorIPPcEELi1ELb1EE5__getB8ue170006Ev, symObjAddr: 0x2A54, symBinAddr: 0x100003228, symSize: 0x14 }
  - { offsetInCU: 0x10A9A, offset: 0x10A9A, size: 0x8, addend: 0x0, symName: __ZNKSt3__114__split_bufferIPPcNS_9allocatorIS2_EEE9__end_capB8ue170006Ev, symObjAddr: 0x2A68, symBinAddr: 0x10000323C, symSize: 0x28 }
  - { offsetInCU: 0x10AC0, offset: 0x10AC0, size: 0x8, addend: 0x0, symName: __ZNKSt3__117__compressed_pairIPPPcNS_9allocatorIS2_EEE5firstB8ue170006Ev, symObjAddr: 0x2A90, symBinAddr: 0x100003264, symSize: 0x24 }
  - { offsetInCU: 0x10AE6, offset: 0x10AE6, size: 0x8, addend: 0x0, symName: __ZNKSt3__122__compressed_pair_elemIPPPcLi0ELb0EE5__getB8ue170006Ev, symObjAddr: 0x2AB4, symBinAddr: 0x100003288, symSize: 0x14 }
  - { offsetInCU: 0x10B0C, offset: 0x10B0C, size: 0x8, addend: 0x0, symName: __ZN5StackIPcED2Ev, symObjAddr: 0x2AC8, symBinAddr: 0x10000329C, symSize: 0x2C }
  - { offsetInCU: 0x10B38, offset: 0x10B38, size: 0x8, addend: 0x0, symName: __ZNSt3__15stackIPcNS_5dequeIS1_NS_9allocatorIS1_EEEEED2Ev, symObjAddr: 0x2AF4, symBinAddr: 0x1000032C8, symSize: 0x2C }
  - { offsetInCU: 0x10B64, offset: 0x10B64, size: 0x8, addend: 0x0, symName: __ZNSt3__15dequeIPcNS_9allocatorIS1_EEED1B8ue170006Ev, symObjAddr: 0x2B20, symBinAddr: 0x1000032F4, symSize: 0x2C }
  - { offsetInCU: 0x10B8E, offset: 0x10B8E, size: 0x8, addend: 0x0, symName: __ZNSt3__15dequeIPcNS_9allocatorIS1_EEED2B8ue170006Ev, symObjAddr: 0x2B4C, symBinAddr: 0x100003320, symSize: 0xA4 }
  - { offsetInCU: 0x10BE5, offset: 0x10BE5, size: 0x8, addend: 0x0, symName: __ZNSt3__15dequeIPcNS_9allocatorIS1_EEE5clearEv, symObjAddr: 0x2BF0, symBinAddr: 0x1000033C4, symSize: 0x194 }
  - { offsetInCU: 0x10C49, offset: 0x10C49, size: 0x8, addend: 0x0, symName: __ZNKSt3__15dequeIPcNS_9allocatorIS1_EEE17__annotate_deleteB8ue170006Ev, symObjAddr: 0x2D84, symBinAddr: 0x100003558, symSize: 0xE8 }
  - { offsetInCU: 0x10C8D, offset: 0x10C8D, size: 0x8, addend: 0x0, symName: __ZNSt3__114__split_bufferIPPcNS_9allocatorIS2_EEE5beginB8ue170006Ev, symObjAddr: 0x2E6C, symBinAddr: 0x100003640, symSize: 0x18 }
  - { offsetInCU: 0x10CB3, offset: 0x10CB3, size: 0x8, addend: 0x0, symName: __ZNSt3__114__split_bufferIPPcNS_9allocatorIS2_EEE3endB8ue170006Ev, symObjAddr: 0x2E84, symBinAddr: 0x100003658, symSize: 0x18 }
  - { offsetInCU: 0x10CD9, offset: 0x10CD9, size: 0x8, addend: 0x0, symName: __ZNSt3__116allocator_traitsINS_9allocatorIPcEEE10deallocateB8ue170006ERS3_PS2_m, symObjAddr: 0x2E9C, symBinAddr: 0x100003670, symSize: 0x34 }
  - { offsetInCU: 0x10D1B, offset: 0x10D1B, size: 0x8, addend: 0x0, symName: __ZNSt3__15dequeIPcNS_9allocatorIS1_EEE7__allocB8ue170006Ev, symObjAddr: 0x2ED0, symBinAddr: 0x1000036A4, symSize: 0x28 }
  - { offsetInCU: 0x10D41, offset: 0x10D41, size: 0x8, addend: 0x0, symName: __ZNSt3__15dequeIPcNS_9allocatorIS1_EEE5beginB8ue170006Ev, symObjAddr: 0x2EF8, symBinAddr: 0x1000036CC, symSize: 0xCC }
  - { offsetInCU: 0x10D76, offset: 0x10D76, size: 0x8, addend: 0x0, symName: __ZNSt3__15dequeIPcNS_9allocatorIS1_EEE3endB8ue170006Ev, symObjAddr: 0x2FC4, symBinAddr: 0x100003798, symSize: 0xBC }
  - { offsetInCU: 0x10DBA, offset: 0x10DBA, size: 0x8, addend: 0x0, symName: __ZNSt3__116allocator_traitsINS_9allocatorIPcEEE7destroyB8ue170006IS2_vEEvRS3_PT_, symObjAddr: 0x30B4, symBinAddr: 0x100003888, symSize: 0x2C }
  - { offsetInCU: 0x10DF7, offset: 0x10DF7, size: 0x8, addend: 0x0, symName: __ZNKSt3__116__deque_iteratorIPcPS1_RS1_PS2_lLl512EEdeB8ue170006Ev, symObjAddr: 0x30E0, symBinAddr: 0x1000038B4, symSize: 0x18 }
  - { offsetInCU: 0x10E1D, offset: 0x10E1D, size: 0x8, addend: 0x0, symName: __ZNSt3__116__deque_iteratorIPcPS1_RS1_PS2_lLl512EEppB8ue170006Ev, symObjAddr: 0x30F8, symBinAddr: 0x1000038CC, symSize: 0x70 }
  - { offsetInCU: 0x10E43, offset: 0x10E43, size: 0x8, addend: 0x0, symName: __ZNSt3__15dequeIPcNS_9allocatorIS1_EEE6__sizeB8ue170006Ev, symObjAddr: 0x3168, symBinAddr: 0x10000393C, symSize: 0x28 }
  - { offsetInCU: 0x10E69, offset: 0x10E69, size: 0x8, addend: 0x0, symName: __ZNSt3__114__split_bufferIPPcNS_9allocatorIS2_EEE5frontB8ue170006Ev, symObjAddr: 0x3190, symBinAddr: 0x100003964, symSize: 0x18 }
  - { offsetInCU: 0x10E8F, offset: 0x10E8F, size: 0x8, addend: 0x0, symName: __ZNSt3__114__split_bufferIPPcNS_9allocatorIS2_EEE9pop_frontB8ue170006Ev, symObjAddr: 0x31A8, symBinAddr: 0x10000397C, symSize: 0x2C }
  - { offsetInCU: 0x10EB5, offset: 0x10EB5, size: 0x8, addend: 0x0, symName: __ZNKSt3__114__split_bufferIPPcNS_9allocatorIS2_EEE5emptyB8ue170006Ev, symObjAddr: 0x31D4, symBinAddr: 0x1000039A8, symSize: 0x28 }
  - { offsetInCU: 0x10EDB, offset: 0x10EDB, size: 0x8, addend: 0x0, symName: __ZNSt3__116__deque_iteratorIPcPS1_RS1_PS2_lLl512EEC1B8ue170006ES4_S2_, symObjAddr: 0x31FC, symBinAddr: 0x1000039D0, symSize: 0x3C }
  - { offsetInCU: 0x10F23, offset: 0x10F23, size: 0x8, addend: 0x0, symName: __ZNSt3__116__deque_iteratorIPcPS1_RS1_PS2_lLl512EEC2B8ue170006ES4_S2_, symObjAddr: 0x3238, symBinAddr: 0x100003A0C, symSize: 0x2C }
  - { offsetInCU: 0x10F6B, offset: 0x10F6B, size: 0x8, addend: 0x0, symName: __ZNSt3__19allocatorIPcE7destroyB8ue170006EPS1_, symObjAddr: 0x3294, symBinAddr: 0x100003A68, symSize: 0x14 }
  - { offsetInCU: 0x10F9F, offset: 0x10F9F, size: 0x8, addend: 0x0, symName: __ZNSt3__117__compressed_pairImNS_9allocatorIPcEEE5firstB8ue170006Ev, symObjAddr: 0x32A8, symBinAddr: 0x100003A7C, symSize: 0x24 }
  - { offsetInCU: 0x10FC5, offset: 0x10FC5, size: 0x8, addend: 0x0, symName: __ZNSt3__122__compressed_pair_elemImLi0ELb0EE5__getB8ue170006Ev, symObjAddr: 0x32CC, symBinAddr: 0x100003AA0, symSize: 0x14 }
  - { offsetInCU: 0x10FEB, offset: 0x10FEB, size: 0x8, addend: 0x0, symName: __ZNSt3__114__split_bufferIPPcNS_9allocatorIS2_EEE19__destruct_at_beginB8ue170006EPS2_, symObjAddr: 0x32E0, symBinAddr: 0x100003AB4, symSize: 0x2C }
  - { offsetInCU: 0x1101F, offset: 0x1101F, size: 0x8, addend: 0x0, symName: __ZNSt3__114__split_bufferIPPcNS_9allocatorIS2_EEE19__destruct_at_beginEPS2_NS_17integral_constantIbLb1EEE, symObjAddr: 0x330C, symBinAddr: 0x100003AE0, symSize: 0x20 }
  - { offsetInCU: 0x1105F, offset: 0x1105F, size: 0x8, addend: 0x0, symName: __ZNKSt3__15dequeIPcNS_9allocatorIS1_EEE22__annotate_whole_blockB8ue170006EmNS4_22__asan_annotation_typeE, symObjAddr: 0x332C, symBinAddr: 0x100003B00, symSize: 0xAC }
  - { offsetInCU: 0x110D0, offset: 0x110D0, size: 0x8, addend: 0x0, symName: __ZNKSt3__15dequeIPcNS_9allocatorIS1_EEE23__annotate_poison_blockB8ue170006EPKvS6_, symObjAddr: 0x33D8, symBinAddr: 0x100003BAC, symSize: 0x44 }
  - { offsetInCU: 0x11114, offset: 0x11114, size: 0x8, addend: 0x0, symName: __ZNSt3__19allocatorIPcE10deallocateB8ue170006EPS1_m, symObjAddr: 0x341C, symBinAddr: 0x100003BF0, symSize: 0x70 }
  - { offsetInCU: 0x11156, offset: 0x11156, size: 0x8, addend: 0x0, symName: __ZNSt3__117__compressed_pairImNS_9allocatorIPcEEE6secondB8ue170006Ev, symObjAddr: 0x348C, symBinAddr: 0x100003C60, symSize: 0x24 }
  - { offsetInCU: 0x1117C, offset: 0x1117C, size: 0x8, addend: 0x0, symName: __ZNSt3__122__compressed_pair_elemINS_9allocatorIPcEELi1ELb1EE5__getB8ue170006Ev, symObjAddr: 0x34B0, symBinAddr: 0x100003C84, symSize: 0x14 }
  - { offsetInCU: 0x111A2, offset: 0x111A2, size: 0x8, addend: 0x0, symName: __ZN5StackI4CellED2Ev, symObjAddr: 0x34C4, symBinAddr: 0x100003C98, symSize: 0x2C }
  - { offsetInCU: 0x111CE, offset: 0x111CE, size: 0x8, addend: 0x0, symName: __ZNSt3__15stackI4CellNS_5dequeIS1_NS_9allocatorIS1_EEEEED2Ev, symObjAddr: 0x34F0, symBinAddr: 0x100003CC4, symSize: 0x2C }
  - { offsetInCU: 0x111FA, offset: 0x111FA, size: 0x8, addend: 0x0, symName: __ZNSt3__15dequeI4CellNS_9allocatorIS1_EEED1B8ue170006Ev, symObjAddr: 0x351C, symBinAddr: 0x100003CF0, symSize: 0x2C }
  - { offsetInCU: 0x11224, offset: 0x11224, size: 0x8, addend: 0x0, symName: __ZNSt3__15dequeI4CellNS_9allocatorIS1_EEED2B8ue170006Ev, symObjAddr: 0x3548, symBinAddr: 0x100003D1C, symSize: 0xA4 }
  - { offsetInCU: 0x1127B, offset: 0x1127B, size: 0x8, addend: 0x0, symName: __ZNSt3__15dequeI4CellNS_9allocatorIS1_EEE5clearEv, symObjAddr: 0x35EC, symBinAddr: 0x100003DC0, symSize: 0x194 }
  - { offsetInCU: 0x112DF, offset: 0x112DF, size: 0x8, addend: 0x0, symName: __ZNKSt3__15dequeI4CellNS_9allocatorIS1_EEE17__annotate_deleteB8ue170006Ev, symObjAddr: 0x3780, symBinAddr: 0x100003F54, symSize: 0xE8 }
  - { offsetInCU: 0x11323, offset: 0x11323, size: 0x8, addend: 0x0, symName: __ZNSt3__114__split_bufferIP4CellNS_9allocatorIS2_EEE5beginB8ue170006Ev, symObjAddr: 0x3868, symBinAddr: 0x10000403C, symSize: 0x18 }
  - { offsetInCU: 0x11349, offset: 0x11349, size: 0x8, addend: 0x0, symName: __ZNSt3__114__split_bufferIP4CellNS_9allocatorIS2_EEE3endB8ue170006Ev, symObjAddr: 0x3880, symBinAddr: 0x100004054, symSize: 0x18 }
  - { offsetInCU: 0x1136F, offset: 0x1136F, size: 0x8, addend: 0x0, symName: __ZNSt3__116allocator_traitsINS_9allocatorI4CellEEE10deallocateB8ue170006ERS3_PS2_m, symObjAddr: 0x3898, symBinAddr: 0x10000406C, symSize: 0x34 }
  - { offsetInCU: 0x113B1, offset: 0x113B1, size: 0x8, addend: 0x0, symName: __ZNSt3__15dequeI4CellNS_9allocatorIS1_EEE7__allocB8ue170006Ev, symObjAddr: 0x38CC, symBinAddr: 0x1000040A0, symSize: 0x28 }
  - { offsetInCU: 0x113D7, offset: 0x113D7, size: 0x8, addend: 0x0, symName: __ZNSt3__15dequeI4CellNS_9allocatorIS1_EEE5beginB8ue170006Ev, symObjAddr: 0x38F4, symBinAddr: 0x1000040C8, symSize: 0xCC }
  - { offsetInCU: 0x1140C, offset: 0x1140C, size: 0x8, addend: 0x0, symName: __ZNSt3__15dequeI4CellNS_9allocatorIS1_EEE3endB8ue170006Ev, symObjAddr: 0x39C0, symBinAddr: 0x100004194, symSize: 0xBC }
  - { offsetInCU: 0x11450, offset: 0x11450, size: 0x8, addend: 0x0, symName: __ZNSt3__116allocator_traitsINS_9allocatorI4CellEEE7destroyB8ue170006IS2_vEEvRS3_PT_, symObjAddr: 0x3AB0, symBinAddr: 0x100004284, symSize: 0x2C }
  - { offsetInCU: 0x1148D, offset: 0x1148D, size: 0x8, addend: 0x0, symName: __ZNKSt3__116__deque_iteratorI4CellPS1_RS1_PS2_lLl512EEdeB8ue170006Ev, symObjAddr: 0x3ADC, symBinAddr: 0x1000042B0, symSize: 0x18 }
  - { offsetInCU: 0x114B3, offset: 0x114B3, size: 0x8, addend: 0x0, symName: __ZNSt3__116__deque_iteratorI4CellPS1_RS1_PS2_lLl512EEppB8ue170006Ev, symObjAddr: 0x3AF4, symBinAddr: 0x1000042C8, symSize: 0x70 }
  - { offsetInCU: 0x114D9, offset: 0x114D9, size: 0x8, addend: 0x0, symName: __ZNSt3__15dequeI4CellNS_9allocatorIS1_EEE6__sizeB8ue170006Ev, symObjAddr: 0x3B64, symBinAddr: 0x100004338, symSize: 0x28 }
  - { offsetInCU: 0x114FF, offset: 0x114FF, size: 0x8, addend: 0x0, symName: __ZNSt3__114__split_bufferIP4CellNS_9allocatorIS2_EEE5frontB8ue170006Ev, symObjAddr: 0x3B8C, symBinAddr: 0x100004360, symSize: 0x18 }
  - { offsetInCU: 0x11525, offset: 0x11525, size: 0x8, addend: 0x0, symName: __ZNSt3__114__split_bufferIP4CellNS_9allocatorIS2_EEE9pop_frontB8ue170006Ev, symObjAddr: 0x3BA4, symBinAddr: 0x100004378, symSize: 0x2C }
  - { offsetInCU: 0x1154B, offset: 0x1154B, size: 0x8, addend: 0x0, symName: __ZNKSt3__114__split_bufferIP4CellNS_9allocatorIS2_EEE5emptyB8ue170006Ev, symObjAddr: 0x3BD0, symBinAddr: 0x1000043A4, symSize: 0x28 }
  - { offsetInCU: 0x11571, offset: 0x11571, size: 0x8, addend: 0x0, symName: __ZNSt3__116__deque_iteratorI4CellPS1_RS1_PS2_lLl512EEC1B8ue170006ES4_S2_, symObjAddr: 0x3BF8, symBinAddr: 0x1000043CC, symSize: 0x3C }
  - { offsetInCU: 0x115B9, offset: 0x115B9, size: 0x8, addend: 0x0, symName: __ZNSt3__116__deque_iteratorI4CellPS1_RS1_PS2_lLl512EEC2B8ue170006ES4_S2_, symObjAddr: 0x3C34, symBinAddr: 0x100004408, symSize: 0x2C }
  - { offsetInCU: 0x11601, offset: 0x11601, size: 0x8, addend: 0x0, symName: __ZNSt3__19allocatorI4CellE7destroyB8ue170006EPS1_, symObjAddr: 0x3C90, symBinAddr: 0x100004464, symSize: 0x14 }
  - { offsetInCU: 0x11635, offset: 0x11635, size: 0x8, addend: 0x0, symName: __ZNSt3__117__compressed_pairImNS_9allocatorI4CellEEE5firstB8ue170006Ev, symObjAddr: 0x3CA4, symBinAddr: 0x100004478, symSize: 0x24 }
  - { offsetInCU: 0x1165B, offset: 0x1165B, size: 0x8, addend: 0x0, symName: __ZNSt3__114__split_bufferIP4CellNS_9allocatorIS2_EEE19__destruct_at_beginB8ue170006EPS2_, symObjAddr: 0x3CC8, symBinAddr: 0x10000449C, symSize: 0x2C }
  - { offsetInCU: 0x1168F, offset: 0x1168F, size: 0x8, addend: 0x0, symName: __ZNSt3__114__split_bufferIP4CellNS_9allocatorIS2_EEE19__destruct_at_beginEPS2_NS_17integral_constantIbLb1EEE, symObjAddr: 0x3CF4, symBinAddr: 0x1000044C8, symSize: 0x20 }
  - { offsetInCU: 0x116CF, offset: 0x116CF, size: 0x8, addend: 0x0, symName: __ZNKSt3__15dequeI4CellNS_9allocatorIS1_EEE22__annotate_whole_blockB8ue170006EmNS4_22__asan_annotation_typeE, symObjAddr: 0x3D14, symBinAddr: 0x1000044E8, symSize: 0xAC }
  - { offsetInCU: 0x11740, offset: 0x11740, size: 0x8, addend: 0x0, symName: __ZNKSt3__15dequeI4CellNS_9allocatorIS1_EEE23__annotate_poison_blockB8ue170006EPKvS6_, symObjAddr: 0x3DC0, symBinAddr: 0x100004594, symSize: 0x44 }
  - { offsetInCU: 0x11784, offset: 0x11784, size: 0x8, addend: 0x0, symName: __ZNSt3__19allocatorI4CellE10deallocateB8ue170006EPS1_m, symObjAddr: 0x3E04, symBinAddr: 0x1000045D8, symSize: 0x70 }
  - { offsetInCU: 0x117C6, offset: 0x117C6, size: 0x8, addend: 0x0, symName: __ZNSt3__117__compressed_pairImNS_9allocatorI4CellEEE6secondB8ue170006Ev, symObjAddr: 0x3E74, symBinAddr: 0x100004648, symSize: 0x24 }
  - { offsetInCU: 0x117EC, offset: 0x117EC, size: 0x8, addend: 0x0, symName: __ZNSt3__122__compressed_pair_elemINS_9allocatorI4CellEELi1ELb1EE5__getB8ue170006Ev, symObjAddr: 0x3E98, symBinAddr: 0x10000466C, symSize: 0x14 }
  - { offsetInCU: 0x11812, offset: 0x11812, size: 0x8, addend: 0x0, symName: __ZN4MazeD2Ev, symObjAddr: 0x3EAC, symBinAddr: 0x100004680, symSize: 0x30 }
  - { offsetInCU: 0x1183E, offset: 0x1183E, size: 0x8, addend: 0x0, symName: __ZNSt3__111char_traitsIcE6lengthB8ue170006EPKc, symObjAddr: 0x40D0, symBinAddr: 0x1000048A4, symSize: 0x48 }
  - { offsetInCU: 0x1187F, offset: 0x1187F, size: 0x8, addend: 0x0, symName: __ZNKSt3__113basic_ostreamIcNS_11char_traitsIcEEE6sentrycvbB8ue170006Ev, symObjAddr: 0x4118, symBinAddr: 0x1000048EC, symSize: 0x1C }
  - { offsetInCU: 0x118A5, offset: 0x118A5, size: 0x8, addend: 0x0, symName: __ZNSt3__119ostreambuf_iteratorIcNS_11char_traitsIcEEEC1B8ue170006ERNS_13basic_ostreamIcS2_EE, symObjAddr: 0x437C, symBinAddr: 0x100004B50, symSize: 0x34 }
  - { offsetInCU: 0x118DD, offset: 0x118DD, size: 0x8, addend: 0x0, symName: __ZNKSt3__18ios_base5flagsB8ue170006Ev, symObjAddr: 0x43B0, symBinAddr: 0x100004B84, symSize: 0x18 }
  - { offsetInCU: 0x11905, offset: 0x11905, size: 0x8, addend: 0x0, symName: __ZNKSt3__19basic_iosIcNS_11char_traitsIcEEE4fillB8ue170006Ev, symObjAddr: 0x43C8, symBinAddr: 0x100004B9C, symSize: 0x64 }
  - { offsetInCU: 0x1192D, offset: 0x1192D, size: 0x8, addend: 0x0, symName: __ZNKSt3__119ostreambuf_iteratorIcNS_11char_traitsIcEEE6failedB8ue170006Ev, symObjAddr: 0x442C, symBinAddr: 0x100004C00, symSize: 0x24 }
  - { offsetInCU: 0x11953, offset: 0x11953, size: 0x8, addend: 0x0, symName: __ZNSt3__19basic_iosIcNS_11char_traitsIcEEE8setstateB8ue170006Ej, symObjAddr: 0x4450, symBinAddr: 0x100004C24, symSize: 0x2C }
  - { offsetInCU: 0x11988, offset: 0x11988, size: 0x8, addend: 0x0, symName: __ZNKSt3__18ios_base5widthB8ue170006Ev, symObjAddr: 0x447C, symBinAddr: 0x100004C50, symSize: 0x18 }
  - { offsetInCU: 0x119B0, offset: 0x119B0, size: 0x8, addend: 0x0, symName: __ZNSt3__115basic_streambufIcNS_11char_traitsIcEEE5sputnB8ue170006EPKcl, symObjAddr: 0x4494, symBinAddr: 0x100004C68, symSize: 0x3C }
  - { offsetInCU: 0x119F2, offset: 0x119F2, size: 0x8, addend: 0x0, symName: __ZNSt3__112basic_stringIcNS_11char_traitsIcEENS_9allocatorIcEEEC1B8ue170006Emc, symObjAddr: 0x44D0, symBinAddr: 0x100004CA4, symSize: 0x3C }
  - { offsetInCU: 0x11A3A, offset: 0x11A3A, size: 0x8, addend: 0x0, symName: __ZNKSt3__112basic_stringIcNS_11char_traitsIcEENS_9allocatorIcEEE4dataB8ue170006Ev, symObjAddr: 0x450C, symBinAddr: 0x100004CE0, symSize: 0x28 }
  - { offsetInCU: 0x11A60, offset: 0x11A60, size: 0x8, addend: 0x0, symName: __ZNSt3__18ios_base5widthB8ue170006El, symObjAddr: 0x4534, symBinAddr: 0x100004D08, symSize: 0x2C }
  - { offsetInCU: 0x11AA6, offset: 0x11AA6, size: 0x8, addend: 0x0, symName: __ZNSt3__112basic_stringIcNS_11char_traitsIcEENS_9allocatorIcEEEC2B8ue170006Emc, symObjAddr: 0x4560, symBinAddr: 0x100004D34, symSize: 0x4C }
  - { offsetInCU: 0x11AEE, offset: 0x11AEE, size: 0x8, addend: 0x0, symName: __ZNSt3__117__compressed_pairINS_12basic_stringIcNS_11char_traitsIcEENS_9allocatorIcEEE5__repES5_EC1B8ue170006INS_18__default_init_tagESA_EEOT_OT0_, symObjAddr: 0x45AC, symBinAddr: 0x100004D80, symSize: 0x3C }
  - { offsetInCU: 0x11B46, offset: 0x11B46, size: 0x8, addend: 0x0, symName: __ZNSt3__117__compressed_pairINS_12basic_stringIcNS_11char_traitsIcEENS_9allocatorIcEEE5__repES5_EC2B8ue170006INS_18__default_init_tagESA_EEOT_OT0_, symObjAddr: 0x45E8, symBinAddr: 0x100004DBC, symSize: 0x3C }
  - { offsetInCU: 0x11B9E, offset: 0x11B9E, size: 0x8, addend: 0x0, symName: __ZNSt3__122__compressed_pair_elemINS_12basic_stringIcNS_11char_traitsIcEENS_9allocatorIcEEE5__repELi0ELb0EEC2B8ue170006ENS_18__default_init_tagE, symObjAddr: 0x4624, symBinAddr: 0x100004DF8, symSize: 0x14 }
  - { offsetInCU: 0x11BD2, offset: 0x11BD2, size: 0x8, addend: 0x0, symName: __ZNSt3__122__compressed_pair_elemINS_9allocatorIcEELi1ELb1EEC2B8ue170006ENS_18__default_init_tagE, symObjAddr: 0x4638, symBinAddr: 0x100004E0C, symSize: 0x2C }
  - { offsetInCU: 0x11C06, offset: 0x11C06, size: 0x8, addend: 0x0, symName: __ZNSt3__19allocatorIcEC2B8ue170006Ev, symObjAddr: 0x4664, symBinAddr: 0x100004E38, symSize: 0x2C }
  - { offsetInCU: 0x11C30, offset: 0x11C30, size: 0x8, addend: 0x0, symName: __ZNSt3__116__non_trivial_ifILb1ENS_9allocatorIcEEEC2B8ue170006Ev, symObjAddr: 0x4690, symBinAddr: 0x100004E64, symSize: 0x14 }
  - { offsetInCU: 0x11C5A, offset: 0x11C5A, size: 0x8, addend: 0x0, symName: __ZNKSt3__112basic_stringIcNS_11char_traitsIcEENS_9allocatorIcEEE13__get_pointerB8ue170006Ev, symObjAddr: 0x46B8, symBinAddr: 0x100004E8C, symSize: 0x54 }
  - { offsetInCU: 0x11C80, offset: 0x11C80, size: 0x8, addend: 0x0, symName: __ZNKSt3__112basic_stringIcNS_11char_traitsIcEENS_9allocatorIcEEE9__is_longB8ue170006Ev, symObjAddr: 0x470C, symBinAddr: 0x100004EE0, symSize: 0x74 }
  - { offsetInCU: 0x11CA6, offset: 0x11CA6, size: 0x8, addend: 0x0, symName: __ZNKSt3__112basic_stringIcNS_11char_traitsIcEENS_9allocatorIcEEE18__get_long_pointerB8ue170006Ev, symObjAddr: 0x4780, symBinAddr: 0x100004F54, symSize: 0x28 }
  - { offsetInCU: 0x11CCC, offset: 0x11CCC, size: 0x8, addend: 0x0, symName: __ZNKSt3__112basic_stringIcNS_11char_traitsIcEENS_9allocatorIcEEE19__get_short_pointerB8ue170006Ev, symObjAddr: 0x47A8, symBinAddr: 0x100004F7C, symSize: 0x28 }
  - { offsetInCU: 0x11CF2, offset: 0x11CF2, size: 0x8, addend: 0x0, symName: __ZNKSt3__117__compressed_pairINS_12basic_stringIcNS_11char_traitsIcEENS_9allocatorIcEEE5__repES5_E5firstB8ue170006Ev, symObjAddr: 0x47D0, symBinAddr: 0x100004FA4, symSize: 0x24 }
  - { offsetInCU: 0x11D18, offset: 0x11D18, size: 0x8, addend: 0x0, symName: __ZNKSt3__122__compressed_pair_elemINS_12basic_stringIcNS_11char_traitsIcEENS_9allocatorIcEEE5__repELi0ELb0EE5__getB8ue170006Ev, symObjAddr: 0x47F4, symBinAddr: 0x100004FC8, symSize: 0x14 }
  - { offsetInCU: 0x11D3E, offset: 0x11D3E, size: 0x8, addend: 0x0, symName: __ZNSt3__114pointer_traitsIPKcE10pointer_toB8ue170006ERS1_, symObjAddr: 0x4808, symBinAddr: 0x100004FDC, symSize: 0x14 }
  - { offsetInCU: 0x11D61, offset: 0x11D61, size: 0x8, addend: 0x0, symName: __ZNSt3__119ostreambuf_iteratorIcNS_11char_traitsIcEEEC2B8ue170006ERNS_13basic_ostreamIcS2_EE, symObjAddr: 0x481C, symBinAddr: 0x100004FF0, symSize: 0x68 }
  - { offsetInCU: 0x11D99, offset: 0x11D99, size: 0x8, addend: 0x0, symName: __ZNKSt3__19basic_iosIcNS_11char_traitsIcEEE5rdbufB8ue170006Ev, symObjAddr: 0x4884, symBinAddr: 0x100005058, symSize: 0x24 }
  - { offsetInCU: 0x11DC1, offset: 0x11DC1, size: 0x8, addend: 0x0, symName: __ZNKSt3__18ios_base5rdbufB8ue170006Ev, symObjAddr: 0x48A8, symBinAddr: 0x10000507C, symSize: 0x18 }
  - { offsetInCU: 0x11DE7, offset: 0x11DE7, size: 0x8, addend: 0x0, symName: __ZNSt3__111char_traitsIcE11eq_int_typeB8ue170006Eii, symObjAddr: 0x48C0, symBinAddr: 0x100005094, symSize: 0x28 }
  - { offsetInCU: 0x11E1A, offset: 0x11E1A, size: 0x8, addend: 0x0, symName: __ZNSt3__111char_traitsIcE3eofB8ue170006Ev, symObjAddr: 0x48E8, symBinAddr: 0x1000050BC, symSize: 0x8 }
  - { offsetInCU: 0x11E2E, offset: 0x11E2E, size: 0x8, addend: 0x0, symName: __ZNKSt3__19basic_iosIcNS_11char_traitsIcEEE5widenB8ue170006Ec, symObjAddr: 0x48F0, symBinAddr: 0x1000050C4, symSize: 0x8C }
  - { offsetInCU: 0x11E8D, offset: 0x11E8D, size: 0x8, addend: 0x0, symName: __ZNKSt3__15ctypeIcE5widenB8ue170006Ec, symObjAddr: 0x49A8, symBinAddr: 0x10000517C, symSize: 0x38 }
  - { offsetInCU: 0x11EC2, offset: 0x11EC2, size: 0x8, addend: 0x0, symName: __ZNSt3__18ios_base8setstateB8ue170006Ej, symObjAddr: 0x49E0, symBinAddr: 0x1000051B4, symSize: 0x34 }
  - { offsetInCU: 0x11EF9, offset: 0x11EF9, size: 0x8, addend: 0x0, symName: __ZNSt3__114numeric_limitsIlE3maxB8ue170006Ev, symObjAddr: 0x4A38, symBinAddr: 0x10000520C, symSize: 0x14 }
  - { offsetInCU: 0x11F0D, offset: 0x11F0D, size: 0x8, addend: 0x0, symName: __ZNSt3__123__libcpp_numeric_limitsIlLb1EE3maxB8ue170006Ev, symObjAddr: 0x4D14, symBinAddr: 0x1000054E8, symSize: 0x8 }
  - { offsetInCU: 0x11FAE, offset: 0x11FAE, size: 0x8, addend: 0x0, symName: __ZNKSt3__113basic_istreamIcNS_11char_traitsIcEEE6sentrycvbB8ue170006Ev, symObjAddr: 0x4D1C, symBinAddr: 0x1000054F0, symSize: 0x1C }
  - { offsetInCU: 0x11FD4, offset: 0x11FD4, size: 0x8, addend: 0x0, symName: __ZNSt3__115basic_streambufIcNS_11char_traitsIcEEE5sgetcB8ue170006Ev, symObjAddr: 0x4D38, symBinAddr: 0x10000550C, symSize: 0x70 }
  - { offsetInCU: 0x11FFA, offset: 0x11FFA, size: 0x8, addend: 0x0, symName: __ZNSt3__111char_traitsIcE12to_char_typeB8ue170006Ei, symObjAddr: 0x4DA8, symBinAddr: 0x10000557C, symSize: 0x18 }
  - { offsetInCU: 0x1201D, offset: 0x1201D, size: 0x8, addend: 0x0, symName: __ZNKSt3__15ctypeIcE2isB8ue170006Ejc, symObjAddr: 0x4DC0, symBinAddr: 0x100005594, symSize: 0x7C }
  - { offsetInCU: 0x12061, offset: 0x12061, size: 0x8, addend: 0x0, symName: __ZNSt3__115basic_streambufIcNS_11char_traitsIcEEE6sbumpcB8ue170006Ev, symObjAddr: 0x4E3C, symBinAddr: 0x100005610, symSize: 0x78 }
  - { offsetInCU: 0x12087, offset: 0x12087, size: 0x8, addend: 0x0, symName: __ZNSt3__18ios_base18__setstate_nothrowB8ue170006Ej, symObjAddr: 0x4EB4, symBinAddr: 0x100005688, symSize: 0x64 }
  - { offsetInCU: 0x120BC, offset: 0x120BC, size: 0x8, addend: 0x0, symName: __ZNKSt3__19basic_iosIcNS_11char_traitsIcEEE10exceptionsB8ue170006Ev, symObjAddr: 0x4F18, symBinAddr: 0x1000056EC, symSize: 0x24 }
  - { offsetInCU: 0x120E2, offset: 0x120E2, size: 0x8, addend: 0x0, symName: __ZNSt3__111char_traitsIcE11to_int_typeB8ue170006Ec, symObjAddr: 0x4F3C, symBinAddr: 0x100005710, symSize: 0x14 }
  - { offsetInCU: 0x12105, offset: 0x12105, size: 0x8, addend: 0x0, symName: __Z7isasciii, symObjAddr: 0x4F50, symBinAddr: 0x100005724, symSize: 0x24 }
  - { offsetInCU: 0x12132, offset: 0x12132, size: 0x8, addend: 0x0, symName: __ZNKSt3__18ios_base10exceptionsB8ue170006Ev, symObjAddr: 0x4F74, symBinAddr: 0x100005748, symSize: 0x18 }
  - { offsetInCU: 0x1215A, offset: 0x1215A, size: 0x8, addend: 0x0, symName: __ZNKSt3__19basic_iosIcNS_11char_traitsIcEEE4failB8ue170006Ev, symObjAddr: 0x4F8C, symBinAddr: 0x100005760, symSize: 0x28 }
  - { offsetInCU: 0x12180, offset: 0x12180, size: 0x8, addend: 0x0, symName: __ZNKSt3__18ios_base4failB8ue170006Ev, symObjAddr: 0x4FB4, symBinAddr: 0x100005788, symSize: 0x28 }
  - { offsetInCU: 0x121A8, offset: 0x121A8, size: 0x8, addend: 0x0, symName: __ZNSt3__15dequeIPcNS_9allocatorIS1_EEE9push_backERKS1_, symObjAddr: 0x4FDC, symBinAddr: 0x1000057B0, symSize: 0xAC }
  - { offsetInCU: 0x121EE, offset: 0x121EE, size: 0x8, addend: 0x0, symName: __ZNKSt3__15dequeIPcNS_9allocatorIS1_EEE12__back_spareB8ue170006Ev, symObjAddr: 0x5088, symBinAddr: 0x10000585C, symSize: 0x54 }
  - { offsetInCU: 0x12214, offset: 0x12214, size: 0x8, addend: 0x0, symName: __ZNSt3__15dequeIPcNS_9allocatorIS1_EEE19__add_back_capacityEv, symObjAddr: 0x50DC, symBinAddr: 0x1000058B0, symSize: 0x364 }
  - { offsetInCU: 0x122CC, offset: 0x122CC, size: 0x8, addend: 0x0, symName: __ZNKSt3__15dequeIPcNS_9allocatorIS1_EEE24__annotate_increase_backB8ue170006Em, symObjAddr: 0x5440, symBinAddr: 0x100005C14, symSize: 0x7C }
  - { offsetInCU: 0x12301, offset: 0x12301, size: 0x8, addend: 0x0, symName: __ZNSt3__116allocator_traitsINS_9allocatorIPcEEE9constructB8ue170006IS2_JRKS2_EvEEvRS3_PT_DpOT0_, symObjAddr: 0x54BC, symBinAddr: 0x100005C90, symSize: 0x34 }
  - { offsetInCU: 0x12358, offset: 0x12358, size: 0x8, addend: 0x0, symName: __ZNKSt3__15dequeIPcNS_9allocatorIS1_EEE10__capacityB8ue170006Ev, symObjAddr: 0x54F0, symBinAddr: 0x100005CC4, symSize: 0x60 }
  - { offsetInCU: 0x1237E, offset: 0x1237E, size: 0x8, addend: 0x0, symName: __ZNKSt3__15dequeIPcNS_9allocatorIS1_EEE13__front_spareB8ue170006Ev, symObjAddr: 0x5550, symBinAddr: 0x100005D24, symSize: 0x18 }
  - { offsetInCU: 0x123A4, offset: 0x123A4, size: 0x8, addend: 0x0, symName: __ZNSt3__114__split_bufferIPPcNS_9allocatorIS2_EEE9push_backB8ue170006ERKS2_, symObjAddr: 0x5568, symBinAddr: 0x100005D3C, symSize: 0x270 }
  - { offsetInCU: 0x1241D, offset: 0x1241D, size: 0x8, addend: 0x0, symName: __ZNKSt3__114__split_bufferIPPcNS_9allocatorIS2_EEE12__back_spareB8ue170006Ev, symObjAddr: 0x57D8, symBinAddr: 0x100005FAC, symSize: 0x40 }
  - { offsetInCU: 0x12443, offset: 0x12443, size: 0x8, addend: 0x0, symName: __ZNSt3__114__split_bufferIPPcNS_9allocatorIS2_EEE9push_backEOS2_, symObjAddr: 0x5818, symBinAddr: 0x100005FEC, symSize: 0x270 }
  - { offsetInCU: 0x124BC, offset: 0x124BC, size: 0x8, addend: 0x0, symName: __ZNSt3__116allocator_traitsINS_9allocatorIPcEEE8allocateB8ue170006ERS3_m, symObjAddr: 0x5A88, symBinAddr: 0x10000625C, symSize: 0x2C }
  - { offsetInCU: 0x124EF, offset: 0x124EF, size: 0x8, addend: 0x0, symName: __ZNSt3__114__split_bufferIPPcNS_9allocatorIS2_EEE10push_frontEOS2_, symObjAddr: 0x5AB4, symBinAddr: 0x100006288, symSize: 0x26C }
  - { offsetInCU: 0x12568, offset: 0x12568, size: 0x8, addend: 0x0, symName: __ZNSt3__114__split_bufferIPPcRNS_9allocatorIS2_EEEC1EmmS5_, symObjAddr: 0x5D4C, symBinAddr: 0x100006520, symSize: 0x44 }
  - { offsetInCU: 0x125C3, offset: 0x125C3, size: 0x8, addend: 0x0, symName: __ZNSt3__122__allocator_destructorINS_9allocatorIPcEEEC1B8ue170006ERS3_m, symObjAddr: 0x5D90, symBinAddr: 0x100006564, symSize: 0x3C }
  - { offsetInCU: 0x1268B, offset: 0x1268B, size: 0x8, addend: 0x0, symName: __ZNSt3__110unique_ptrIPPcNS_22__allocator_destructorINS_9allocatorIS1_EEEEEC1B8ue170006ILb1EvEES2_NS_16__dependent_typeINS_27__unique_ptr_deleter_sfinaeIS6_EEXT_EE20__good_rval_ref_typeE, symObjAddr: 0x5DCC, symBinAddr: 0x1000065A0, symSize: 0x3C }
  - { offsetInCU: 0x126DC, offset: 0x126DC, size: 0x8, addend: 0x0, symName: __ZNSt3__114__split_bufferIPPcRNS_9allocatorIS2_EEE9push_backEOS2_, symObjAddr: 0x5E08, symBinAddr: 0x1000065DC, symSize: 0x270 }
  - { offsetInCU: 0x12755, offset: 0x12755, size: 0x8, addend: 0x0, symName: __ZNKSt3__110unique_ptrIPPcNS_22__allocator_destructorINS_9allocatorIS1_EEEEE3getB8ue170006Ev, symObjAddr: 0x6078, symBinAddr: 0x10000684C, symSize: 0x28 }
  - { offsetInCU: 0x1277B, offset: 0x1277B, size: 0x8, addend: 0x0, symName: __ZNSt3__110unique_ptrIPPcNS_22__allocator_destructorINS_9allocatorIS1_EEEEE7releaseB8ue170006Ev, symObjAddr: 0x60A0, symBinAddr: 0x100006874, symSize: 0x44 }
  - { offsetInCU: 0x127B0, offset: 0x127B0, size: 0x8, addend: 0x0, symName: __ZNSt3__114__split_bufferIPPcRNS_9allocatorIS2_EEE10push_frontERKS2_, symObjAddr: 0x60E4, symBinAddr: 0x1000068B8, symSize: 0x26C }
  - { offsetInCU: 0x12829, offset: 0x12829, size: 0x8, addend: 0x0, symName: __ZNSt3__114__split_bufferIPPcNS_9allocatorIS2_EEE9__end_capB8ue170006Ev, symObjAddr: 0x638C, symBinAddr: 0x100006B60, symSize: 0x28 }
  - { offsetInCU: 0x1284F, offset: 0x1284F, size: 0x8, addend: 0x0, symName: __ZNSt3__114__split_bufferIPPcRNS_9allocatorIS2_EEE9__end_capB8ue170006Ev, symObjAddr: 0x63B4, symBinAddr: 0x100006B88, symSize: 0x28 }
  - { offsetInCU: 0x12875, offset: 0x12875, size: 0x8, addend: 0x0, symName: __ZNSt3__110unique_ptrIPPcNS_22__allocator_destructorINS_9allocatorIS1_EEEEED1B8ue170006Ev, symObjAddr: 0x63DC, symBinAddr: 0x100006BB0, symSize: 0x2C }
  - { offsetInCU: 0x1289F, offset: 0x1289F, size: 0x8, addend: 0x0, symName: __ZNSt3__114__split_bufferIPPcRNS_9allocatorIS2_EEED1Ev, symObjAddr: 0x6408, symBinAddr: 0x100006BDC, symSize: 0x2C }
  - { offsetInCU: 0x128CB, offset: 0x128CB, size: 0x8, addend: 0x0, symName: __ZNSt3__114__split_bufferIPPcRNS_9allocatorIS2_EEE18__construct_at_endINS_13move_iteratorIPS2_EEEENS_9enable_ifIXsr31__has_forward_iterator_categoryIT_EE5valueEvE4typeESC_SC_, symObjAddr: 0x6474, symBinAddr: 0x100006C48, symSize: 0x60 }
  - { offsetInCU: 0x12918, offset: 0x12918, size: 0x8, addend: 0x0, symName: __ZNSt3__113move_iteratorIPPPcEC1B8ue170006ES3_, symObjAddr: 0x64D4, symBinAddr: 0x100006CA8, symSize: 0x34 }
  - { offsetInCU: 0x12950, offset: 0x12950, size: 0x8, addend: 0x0, symName: __ZNSt3__116allocator_traitsINS_9allocatorIPPcEEE9constructB8ue170006IS3_JRKS3_EvEEvRS4_PT_DpOT0_, symObjAddr: 0x6508, symBinAddr: 0x100006CDC, symSize: 0x34 }
  - { offsetInCU: 0x129CA, offset: 0x129CA, size: 0x8, addend: 0x0, symName: __ZNKSt3__114__move_trivialclB8ue170006IPPcS3_Li0EEENS_4pairIPT_PT0_EES6_S6_S8_, symObjAddr: 0x66D8, symBinAddr: 0x100006EAC, symSize: 0x48 }
  - { offsetInCU: 0x12A32, offset: 0x12A32, size: 0x8, addend: 0x0, symName: __ZNSt3__14pairIPPPcS3_EC1B8ue170006ERKS3_S6_, symObjAddr: 0x6950, symBinAddr: 0x100007124, symSize: 0x3C }
  - { offsetInCU: 0x12A78, offset: 0x12A78, size: 0x8, addend: 0x0, symName: __ZNSt3__14pairIPPPcS3_EC2B8ue170006ERKS3_S6_, symObjAddr: 0x698C, symBinAddr: 0x100007160, symSize: 0x34 }
  - { offsetInCU: 0x12ABE, offset: 0x12ABE, size: 0x8, addend: 0x0, symName: __ZNSt3__118__unwrap_iter_implIPPPcLb1EE8__unwrapB8ue170006ES3_, symObjAddr: 0x69C0, symBinAddr: 0x100007194, symSize: 0x24 }
  - { offsetInCU: 0x12AE1, offset: 0x12AE1, size: 0x8, addend: 0x0, symName: __ZNSt3__118__unwrap_iter_implIPPPcLb1EE8__rewrapB8ue170006ES3_S3_, symObjAddr: 0x69E4, symBinAddr: 0x1000071B8, symSize: 0x50 }
  - { offsetInCU: 0x12B12, offset: 0x12B12, size: 0x8, addend: 0x0, symName: __ZNSt3__114__split_bufferIPPcRNS_9allocatorIS2_EEE28__construct_at_end_with_sizeINS_13move_iteratorIPS2_EEEEvT_m, symObjAddr: 0x6A34, symBinAddr: 0x100007208, symSize: 0xE4 }
  - { offsetInCU: 0x12B78, offset: 0x12B78, size: 0x8, addend: 0x0, symName: __ZNSt3__114__split_bufferIPPcRNS_9allocatorIS2_EEE21_ConstructTransactionC1B8ue170006EPPS2_m, symObjAddr: 0x6B54, symBinAddr: 0x100007328, symSize: 0x3C }
  - { offsetInCU: 0x12BBE, offset: 0x12BBE, size: 0x8, addend: 0x0, symName: __ZNSt3__116allocator_traitsINS_9allocatorIPPcEEE9constructB8ue170006IS3_JS3_EvEEvRS4_PT_DpOT0_, symObjAddr: 0x6B90, symBinAddr: 0x100007364, symSize: 0x34 }
  - { offsetInCU: 0x12C15, offset: 0x12C15, size: 0x8, addend: 0x0, symName: __ZNSt3__114__split_bufferIPPcRNS_9allocatorIS2_EEE7__allocB8ue170006Ev, symObjAddr: 0x6BC4, symBinAddr: 0x100007398, symSize: 0x28 }
  - { offsetInCU: 0x12C3B, offset: 0x12C3B, size: 0x8, addend: 0x0, symName: __ZNKSt3__113move_iteratorIPPPcEdeB8ue170006Ev, symObjAddr: 0x6BEC, symBinAddr: 0x1000073C0, symSize: 0x18 }
  - { offsetInCU: 0x12C61, offset: 0x12C61, size: 0x8, addend: 0x0, symName: __ZNSt3__113move_iteratorIPPPcEppB8ue170006Ev, symObjAddr: 0x6C04, symBinAddr: 0x1000073D8, symSize: 0x20 }
  - { offsetInCU: 0x12C87, offset: 0x12C87, size: 0x8, addend: 0x0, symName: __ZNSt3__114__split_bufferIPPcRNS_9allocatorIS2_EEE21_ConstructTransactionD1B8ue170006Ev, symObjAddr: 0x6C24, symBinAddr: 0x1000073F8, symSize: 0x2C }
  - { offsetInCU: 0x12CB1, offset: 0x12CB1, size: 0x8, addend: 0x0, symName: __ZNSt3__114__split_bufferIPPcRNS_9allocatorIS2_EEE21_ConstructTransactionC2B8ue170006EPPS2_m, symObjAddr: 0x6C50, symBinAddr: 0x100007424, symSize: 0x44 }
  - { offsetInCU: 0x12CF7, offset: 0x12CF7, size: 0x8, addend: 0x0, symName: __ZNSt3__19allocatorIPPcE9constructB8ue170006IS2_JS2_EEEvPT_DpOT0_, symObjAddr: 0x6C94, symBinAddr: 0x100007468, symSize: 0x28 }
  - { offsetInCU: 0x12D4D, offset: 0x12D4D, size: 0x8, addend: 0x0, symName: __ZNSt3__117__compressed_pairIPPPcRNS_9allocatorIS2_EEE6secondB8ue170006Ev, symObjAddr: 0x6CBC, symBinAddr: 0x100007490, symSize: 0x28 }
  - { offsetInCU: 0x12D73, offset: 0x12D73, size: 0x8, addend: 0x0, symName: __ZNSt3__122__compressed_pair_elemIRNS_9allocatorIPPcEELi1ELb0EE5__getB8ue170006Ev, symObjAddr: 0x6CE4, symBinAddr: 0x1000074B8, symSize: 0x18 }
  - { offsetInCU: 0x12D99, offset: 0x12D99, size: 0x8, addend: 0x0, symName: __ZNSt3__114__split_bufferIPPcRNS_9allocatorIS2_EEE21_ConstructTransactionD2B8ue170006Ev, symObjAddr: 0x6CFC, symBinAddr: 0x1000074D0, symSize: 0x20 }
  - { offsetInCU: 0x12DC3, offset: 0x12DC3, size: 0x8, addend: 0x0, symName: __ZNKSt3__113move_iteratorIPPPcE4baseB8ue170006Ev, symObjAddr: 0x6D94, symBinAddr: 0x100007568, symSize: 0x18 }
  - { offsetInCU: 0x12DE9, offset: 0x12DE9, size: 0x8, addend: 0x0, symName: __ZNSt3__113move_iteratorIPPPcEC2B8ue170006ES3_, symObjAddr: 0x6DAC, symBinAddr: 0x100007580, symSize: 0x20 }
  - { offsetInCU: 0x12E21, offset: 0x12E21, size: 0x8, addend: 0x0, symName: __ZNSt3__19allocatorIPPcE9constructB8ue170006IS2_JRKS2_EEEvPT_DpOT0_, symObjAddr: 0x6DCC, symBinAddr: 0x1000075A0, symSize: 0x28 }
  - { offsetInCU: 0x12E77, offset: 0x12E77, size: 0x8, addend: 0x0, symName: __ZNSt3__19allocatorIPcE8allocateB8ue170006Em, symObjAddr: 0x6DF4, symBinAddr: 0x1000075C8, symSize: 0x84 }
  - { offsetInCU: 0x12EB5, offset: 0x12EB5, size: 0x8, addend: 0x0, symName: __ZNSt3__116allocator_traitsINS_9allocatorIPcEEE8max_sizeB8ue170006IS3_vEEmRKS3_, symObjAddr: 0x6E78, symBinAddr: 0x10000764C, symSize: 0x24 }
  - { offsetInCU: 0x12EE3, offset: 0x12EE3, size: 0x8, addend: 0x0, symName: __ZNKSt3__19allocatorIPcE8max_sizeB8ue170006Ev, symObjAddr: 0x6EF8, symBinAddr: 0x1000076CC, symSize: 0x14 }
  - { offsetInCU: 0x12F13, offset: 0x12F13, size: 0x8, addend: 0x0, symName: __ZNKSt3__123__move_backward_trivialclB8ue170006IPPcS3_Li0EEENS_4pairIPT_PT0_EES6_S6_S8_, symObjAddr: 0x70AC, symBinAddr: 0x100007880, symSize: 0x48 }
  - { offsetInCU: 0x12F85, offset: 0x12F85, size: 0x8, addend: 0x0, symName: __ZNKSt3__16__lessIvvEclB8ue170006ImmEEbRKT_RKT0_, symObjAddr: 0x7210, symBinAddr: 0x1000079E4, symSize: 0x34 }
  - { offsetInCU: 0x12FD9, offset: 0x12FD9, size: 0x8, addend: 0x0, symName: __ZNSt3__114__split_bufferIPPcRNS_9allocatorIS2_EEEC2EmmS5_, symObjAddr: 0x7244, symBinAddr: 0x100007A18, symSize: 0xD4 }
  - { offsetInCU: 0x1304D, offset: 0x1304D, size: 0x8, addend: 0x0, symName: __ZNSt3__117__compressed_pairIPPPcRNS_9allocatorIS2_EEEC1B8ue170006IDnS6_EEOT_OT0_, symObjAddr: 0x7318, symBinAddr: 0x100007AEC, symSize: 0x3C }
  - { offsetInCU: 0x130A5, offset: 0x130A5, size: 0x8, addend: 0x0, symName: __ZNSt3__117__compressed_pairIPPPcRNS_9allocatorIS2_EEEC2B8ue170006IDnS6_EEOT_OT0_, symObjAddr: 0x7394, symBinAddr: 0x100007B68, symSize: 0x48 }
  - { offsetInCU: 0x130FD, offset: 0x130FD, size: 0x8, addend: 0x0, symName: __ZNSt3__122__compressed_pair_elemIRNS_9allocatorIPPcEELi1ELb0EEC2B8ue170006IS5_vEEOT_, symObjAddr: 0x73DC, symBinAddr: 0x100007BB0, symSize: 0x20 }
  - { offsetInCU: 0x1313F, offset: 0x1313F, size: 0x8, addend: 0x0, symName: __ZNSt3__19allocatorIPPcE8allocateB8ue170006Em, symObjAddr: 0x73FC, symBinAddr: 0x100007BD0, symSize: 0x84 }
  - { offsetInCU: 0x1317D, offset: 0x1317D, size: 0x8, addend: 0x0, symName: __ZNSt3__116allocator_traitsINS_9allocatorIPPcEEE8max_sizeB8ue170006IS4_vEEmRKS4_, symObjAddr: 0x7480, symBinAddr: 0x100007C54, symSize: 0x24 }
  - { offsetInCU: 0x131AB, offset: 0x131AB, size: 0x8, addend: 0x0, symName: __ZNKSt3__19allocatorIPPcE8max_sizeB8ue170006Ev, symObjAddr: 0x74A4, symBinAddr: 0x100007C78, symSize: 0x14 }
  - { offsetInCU: 0x131D1, offset: 0x131D1, size: 0x8, addend: 0x0, symName: __ZNSt3__122__allocator_destructorINS_9allocatorIPcEEEC2B8ue170006ERS3_m, symObjAddr: 0x74B8, symBinAddr: 0x100007C8C, symSize: 0x2C }
  - { offsetInCU: 0x13217, offset: 0x13217, size: 0x8, addend: 0x0, symName: __ZNSt3__110unique_ptrIPPcNS_22__allocator_destructorINS_9allocatorIS1_EEEEEC2B8ue170006ILb1EvEES2_NS_16__dependent_typeINS_27__unique_ptr_deleter_sfinaeIS6_EEXT_EE20__good_rval_ref_typeE, symObjAddr: 0x74E4, symBinAddr: 0x100007CB8, symSize: 0x5C }
  - { offsetInCU: 0x13268, offset: 0x13268, size: 0x8, addend: 0x0, symName: __ZNSt3__117__compressed_pairIPPcNS_22__allocator_destructorINS_9allocatorIS1_EEEEEC1B8ue170006IRS2_S6_EEOT_OT0_, symObjAddr: 0x7540, symBinAddr: 0x100007D14, symSize: 0x3C }
  - { offsetInCU: 0x132C0, offset: 0x132C0, size: 0x8, addend: 0x0, symName: __ZNSt3__117__compressed_pairIPPcNS_22__allocator_destructorINS_9allocatorIS1_EEEEEC2B8ue170006IRS2_S6_EEOT_OT0_, symObjAddr: 0x757C, symBinAddr: 0x100007D50, symSize: 0x48 }
  - { offsetInCU: 0x13318, offset: 0x13318, size: 0x8, addend: 0x0, symName: __ZNSt3__122__compressed_pair_elemIPPcLi0ELb0EEC2B8ue170006IRS2_vEEOT_, symObjAddr: 0x75C4, symBinAddr: 0x100007D98, symSize: 0x24 }
  - { offsetInCU: 0x1335A, offset: 0x1335A, size: 0x8, addend: 0x0, symName: __ZNSt3__122__compressed_pair_elemINS_22__allocator_destructorINS_9allocatorIPcEEEELi1ELb0EEC2B8ue170006IS5_vEEOT_, symObjAddr: 0x75E8, symBinAddr: 0x100007DBC, symSize: 0x24 }
  - { offsetInCU: 0x1339C, offset: 0x1339C, size: 0x8, addend: 0x0, symName: __ZNKSt3__117__compressed_pairIPPcNS_22__allocator_destructorINS_9allocatorIS1_EEEEE5firstB8ue170006Ev, symObjAddr: 0x760C, symBinAddr: 0x100007DE0, symSize: 0x24 }
  - { offsetInCU: 0x133C2, offset: 0x133C2, size: 0x8, addend: 0x0, symName: __ZNKSt3__122__compressed_pair_elemIPPcLi0ELb0EE5__getB8ue170006Ev, symObjAddr: 0x7630, symBinAddr: 0x100007E04, symSize: 0x14 }
  - { offsetInCU: 0x133E8, offset: 0x133E8, size: 0x8, addend: 0x0, symName: __ZNSt3__117__compressed_pairIPPcNS_22__allocator_destructorINS_9allocatorIS1_EEEEE5firstB8ue170006Ev, symObjAddr: 0x7644, symBinAddr: 0x100007E18, symSize: 0x24 }
  - { offsetInCU: 0x1340E, offset: 0x1340E, size: 0x8, addend: 0x0, symName: __ZNSt3__122__compressed_pair_elemIPPcLi0ELb0EE5__getB8ue170006Ev, symObjAddr: 0x7668, symBinAddr: 0x100007E3C, symSize: 0x14 }
  - { offsetInCU: 0x13434, offset: 0x13434, size: 0x8, addend: 0x0, symName: __ZNSt3__117__compressed_pairIPPPcNS_9allocatorIS2_EEE5firstB8ue170006Ev, symObjAddr: 0x767C, symBinAddr: 0x100007E50, symSize: 0x24 }
  - { offsetInCU: 0x1345A, offset: 0x1345A, size: 0x8, addend: 0x0, symName: __ZNSt3__122__compressed_pair_elemIPPPcLi0ELb0EE5__getB8ue170006Ev, symObjAddr: 0x76A0, symBinAddr: 0x100007E74, symSize: 0x14 }
  - { offsetInCU: 0x13480, offset: 0x13480, size: 0x8, addend: 0x0, symName: __ZNSt3__117__compressed_pairIPPPcRNS_9allocatorIS2_EEE5firstB8ue170006Ev, symObjAddr: 0x76B4, symBinAddr: 0x100007E88, symSize: 0x24 }
  - { offsetInCU: 0x134A6, offset: 0x134A6, size: 0x8, addend: 0x0, symName: __ZNSt3__110unique_ptrIPPcNS_22__allocator_destructorINS_9allocatorIS1_EEEEED2B8ue170006Ev, symObjAddr: 0x76D8, symBinAddr: 0x100007EAC, symSize: 0x30 }
  - { offsetInCU: 0x134D0, offset: 0x134D0, size: 0x8, addend: 0x0, symName: __ZNSt3__110unique_ptrIPPcNS_22__allocator_destructorINS_9allocatorIS1_EEEEE5resetB8ue170006ES2_, symObjAddr: 0x7708, symBinAddr: 0x100007EDC, symSize: 0x78 }
  - { offsetInCU: 0x13514, offset: 0x13514, size: 0x8, addend: 0x0, symName: __ZNSt3__117__compressed_pairIPPcNS_22__allocator_destructorINS_9allocatorIS1_EEEEE6secondB8ue170006Ev, symObjAddr: 0x7780, symBinAddr: 0x100007F54, symSize: 0x28 }
  - { offsetInCU: 0x1353A, offset: 0x1353A, size: 0x8, addend: 0x0, symName: __ZNSt3__122__allocator_destructorINS_9allocatorIPcEEEclB8ue170006EPS2_, symObjAddr: 0x77A8, symBinAddr: 0x100007F7C, symSize: 0x34 }
  - { offsetInCU: 0x1356E, offset: 0x1356E, size: 0x8, addend: 0x0, symName: __ZNSt3__122__compressed_pair_elemINS_22__allocator_destructorINS_9allocatorIPcEEEELi1ELb0EE5__getB8ue170006Ev, symObjAddr: 0x77DC, symBinAddr: 0x100007FB0, symSize: 0x14 }
  - { offsetInCU: 0x13594, offset: 0x13594, size: 0x8, addend: 0x0, symName: __ZNSt3__114__split_bufferIPPcRNS_9allocatorIS2_EEED2Ev, symObjAddr: 0x77F0, symBinAddr: 0x100007FC4, symSize: 0x80 }
  - { offsetInCU: 0x135C0, offset: 0x135C0, size: 0x8, addend: 0x0, symName: __ZNSt3__114__split_bufferIPPcRNS_9allocatorIS2_EEE5clearB8ue170006Ev, symObjAddr: 0x7870, symBinAddr: 0x100008044, symSize: 0x28 }
  - { offsetInCU: 0x135E6, offset: 0x135E6, size: 0x8, addend: 0x0, symName: __ZNKSt3__114__split_bufferIPPcRNS_9allocatorIS2_EEE8capacityB8ue170006Ev, symObjAddr: 0x7898, symBinAddr: 0x10000806C, symSize: 0x40 }
  - { offsetInCU: 0x1360C, offset: 0x1360C, size: 0x8, addend: 0x0, symName: __ZNSt3__114__split_bufferIPPcRNS_9allocatorIS2_EEE17__destruct_at_endB8ue170006EPS2_, symObjAddr: 0x78D8, symBinAddr: 0x1000080AC, symSize: 0x2C }
  - { offsetInCU: 0x13640, offset: 0x13640, size: 0x8, addend: 0x0, symName: __ZNSt3__114__split_bufferIPPcRNS_9allocatorIS2_EEE17__destruct_at_endB8ue170006EPS2_NS_17integral_constantIbLb0EEE, symObjAddr: 0x7904, symBinAddr: 0x1000080D8, symSize: 0x94 }
  - { offsetInCU: 0x13680, offset: 0x13680, size: 0x8, addend: 0x0, symName: __ZNKSt3__114__split_bufferIPPcRNS_9allocatorIS2_EEE9__end_capB8ue170006Ev, symObjAddr: 0x7998, symBinAddr: 0x10000816C, symSize: 0x28 }
  - { offsetInCU: 0x136A6, offset: 0x136A6, size: 0x8, addend: 0x0, symName: __ZNKSt3__117__compressed_pairIPPPcRNS_9allocatorIS2_EEE5firstB8ue170006Ev, symObjAddr: 0x79C0, symBinAddr: 0x100008194, symSize: 0x24 }
  - { offsetInCU: 0x136CC, offset: 0x136CC, size: 0x8, addend: 0x0, symName: __ZNSt3__19allocatorIPcE9constructB8ue170006IS1_JRKS1_EEEvPT_DpOT0_, symObjAddr: 0x79E4, symBinAddr: 0x1000081B8, symSize: 0x28 }
  - { offsetInCU: 0x13722, offset: 0x13722, size: 0x8, addend: 0x0, symName: __ZNSt3__15stackIPcNS_5dequeIS1_NS_9allocatorIS1_EEEEE3topB8ue170006Ev, symObjAddr: 0x7A0C, symBinAddr: 0x1000081E0, symSize: 0x24 }
  - { offsetInCU: 0x13748, offset: 0x13748, size: 0x8, addend: 0x0, symName: __ZNSt3__15stackIPcNS_5dequeIS1_NS_9allocatorIS1_EEEEE3popB8ue170006Ev, symObjAddr: 0x7A30, symBinAddr: 0x100008204, symSize: 0x24 }
  - { offsetInCU: 0x1376E, offset: 0x1376E, size: 0x8, addend: 0x0, symName: __ZNSt3__15dequeIPcNS_9allocatorIS1_EEE4backEv, symObjAddr: 0x7A54, symBinAddr: 0x100008228, symSize: 0x68 }
  - { offsetInCU: 0x137A5, offset: 0x137A5, size: 0x8, addend: 0x0, symName: __ZNSt3__15dequeIPcNS_9allocatorIS1_EEE8pop_backEv, symObjAddr: 0x7ABC, symBinAddr: 0x100008290, symSize: 0xE0 }
  - { offsetInCU: 0x13809, offset: 0x13809, size: 0x8, addend: 0x0, symName: __ZNKSt3__15dequeIPcNS_9allocatorIS1_EEE22__annotate_shrink_backB8ue170006Emm, symObjAddr: 0x7B9C, symBinAddr: 0x100008370, symSize: 0x60 }
  - { offsetInCU: 0x1384D, offset: 0x1384D, size: 0x8, addend: 0x0, symName: __ZNSt3__15dequeIPcNS_9allocatorIS1_EEE25__maybe_remove_back_spareB8ue170006Eb, symObjAddr: 0x7BFC, symBinAddr: 0x1000083D0, symSize: 0xE8 }
  - { offsetInCU: 0x13882, offset: 0x13882, size: 0x8, addend: 0x0, symName: __ZNKSt3__15dequeIPcNS_9allocatorIS1_EEE19__back_spare_blocksB8ue170006Ev, symObjAddr: 0x7CE4, symBinAddr: 0x1000084B8, symSize: 0x2C }
  - { offsetInCU: 0x138A8, offset: 0x138A8, size: 0x8, addend: 0x0, symName: __ZNSt3__114__split_bufferIPPcNS_9allocatorIS2_EEE4backB8ue170006Ev, symObjAddr: 0x7D10, symBinAddr: 0x1000084E4, symSize: 0x1C }
  - { offsetInCU: 0x138CE, offset: 0x138CE, size: 0x8, addend: 0x0, symName: __ZNSt3__114__split_bufferIPPcNS_9allocatorIS2_EEE8pop_backB8ue170006Ev, symObjAddr: 0x7D2C, symBinAddr: 0x100008500, symSize: 0x2C }
  - { offsetInCU: 0x138F4, offset: 0x138F4, size: 0x8, addend: 0x0, symName: __ZNSt3__15dequeI4CellNS_9allocatorIS1_EEE9push_backERKS1_, symObjAddr: 0x7D58, symBinAddr: 0x10000852C, symSize: 0xAC }
  - { offsetInCU: 0x1393A, offset: 0x1393A, size: 0x8, addend: 0x0, symName: __ZNKSt3__15dequeI4CellNS_9allocatorIS1_EEE12__back_spareB8ue170006Ev, symObjAddr: 0x7E04, symBinAddr: 0x1000085D8, symSize: 0x54 }
  - { offsetInCU: 0x13960, offset: 0x13960, size: 0x8, addend: 0x0, symName: __ZNSt3__15dequeI4CellNS_9allocatorIS1_EEE19__add_back_capacityEv, symObjAddr: 0x7E58, symBinAddr: 0x10000862C, symSize: 0x364 }
  - { offsetInCU: 0x13A18, offset: 0x13A18, size: 0x8, addend: 0x0, symName: __ZNKSt3__15dequeI4CellNS_9allocatorIS1_EEE24__annotate_increase_backB8ue170006Em, symObjAddr: 0x81BC, symBinAddr: 0x100008990, symSize: 0x7C }
  - { offsetInCU: 0x13A4D, offset: 0x13A4D, size: 0x8, addend: 0x0, symName: __ZNSt3__116allocator_traitsINS_9allocatorI4CellEEE9constructB8ue170006IS2_JRKS2_EvEEvRS3_PT_DpOT0_, symObjAddr: 0x8238, symBinAddr: 0x100008A0C, symSize: 0x34 }
  - { offsetInCU: 0x13AA4, offset: 0x13AA4, size: 0x8, addend: 0x0, symName: __ZNKSt3__15dequeI4CellNS_9allocatorIS1_EEE10__capacityB8ue170006Ev, symObjAddr: 0x826C, symBinAddr: 0x100008A40, symSize: 0x60 }
  - { offsetInCU: 0x13ACA, offset: 0x13ACA, size: 0x8, addend: 0x0, symName: __ZNKSt3__15dequeI4CellNS_9allocatorIS1_EEE13__front_spareB8ue170006Ev, symObjAddr: 0x82CC, symBinAddr: 0x100008AA0, symSize: 0x18 }
  - { offsetInCU: 0x13AF0, offset: 0x13AF0, size: 0x8, addend: 0x0, symName: __ZNSt3__114__split_bufferIP4CellNS_9allocatorIS2_EEE9push_backB8ue170006ERKS2_, symObjAddr: 0x82E4, symBinAddr: 0x100008AB8, symSize: 0x270 }
  - { offsetInCU: 0x13B69, offset: 0x13B69, size: 0x8, addend: 0x0, symName: __ZNKSt3__114__split_bufferIP4CellNS_9allocatorIS2_EEE12__back_spareB8ue170006Ev, symObjAddr: 0x8554, symBinAddr: 0x100008D28, symSize: 0x40 }
  - { offsetInCU: 0x13B8F, offset: 0x13B8F, size: 0x8, addend: 0x0, symName: __ZNSt3__114__split_bufferIP4CellNS_9allocatorIS2_EEE9push_backEOS2_, symObjAddr: 0x8594, symBinAddr: 0x100008D68, symSize: 0x270 }
  - { offsetInCU: 0x13C08, offset: 0x13C08, size: 0x8, addend: 0x0, symName: __ZNSt3__116allocator_traitsINS_9allocatorI4CellEEE8allocateB8ue170006ERS3_m, symObjAddr: 0x8804, symBinAddr: 0x100008FD8, symSize: 0x2C }
  - { offsetInCU: 0x13C3B, offset: 0x13C3B, size: 0x8, addend: 0x0, symName: __ZNSt3__114__split_bufferIP4CellNS_9allocatorIS2_EEE10push_frontEOS2_, symObjAddr: 0x8830, symBinAddr: 0x100009004, symSize: 0x26C }
  - { offsetInCU: 0x13CB4, offset: 0x13CB4, size: 0x8, addend: 0x0, symName: __ZNSt3__114__split_bufferIP4CellRNS_9allocatorIS2_EEEC1EmmS5_, symObjAddr: 0x8A9C, symBinAddr: 0x100009270, symSize: 0x44 }
  - { offsetInCU: 0x13D0F, offset: 0x13D0F, size: 0x8, addend: 0x0, symName: __ZNSt3__122__allocator_destructorINS_9allocatorI4CellEEEC1B8ue170006ERS3_m, symObjAddr: 0x8AE0, symBinAddr: 0x1000092B4, symSize: 0x3C }
  - { offsetInCU: 0x13DD7, offset: 0x13DD7, size: 0x8, addend: 0x0, symName: __ZNSt3__110unique_ptrIP4CellNS_22__allocator_destructorINS_9allocatorIS1_EEEEEC1B8ue170006ILb1EvEES2_NS_16__dependent_typeINS_27__unique_ptr_deleter_sfinaeIS6_EEXT_EE20__good_rval_ref_typeE, symObjAddr: 0x8B1C, symBinAddr: 0x1000092F0, symSize: 0x3C }
  - { offsetInCU: 0x13E28, offset: 0x13E28, size: 0x8, addend: 0x0, symName: __ZNSt3__114__split_bufferIP4CellRNS_9allocatorIS2_EEE9push_backEOS2_, symObjAddr: 0x8B58, symBinAddr: 0x10000932C, symSize: 0x270 }
  - { offsetInCU: 0x13EA1, offset: 0x13EA1, size: 0x8, addend: 0x0, symName: __ZNKSt3__110unique_ptrIP4CellNS_22__allocator_destructorINS_9allocatorIS1_EEEEE3getB8ue170006Ev, symObjAddr: 0x8DC8, symBinAddr: 0x10000959C, symSize: 0x28 }
  - { offsetInCU: 0x13EC7, offset: 0x13EC7, size: 0x8, addend: 0x0, symName: __ZNSt3__110unique_ptrIP4CellNS_22__allocator_destructorINS_9allocatorIS1_EEEEE7releaseB8ue170006Ev, symObjAddr: 0x8DF0, symBinAddr: 0x1000095C4, symSize: 0x44 }
  - { offsetInCU: 0x13EFC, offset: 0x13EFC, size: 0x8, addend: 0x0, symName: __ZNSt3__114__split_bufferIP4CellRNS_9allocatorIS2_EEE10push_frontERKS2_, symObjAddr: 0x8E34, symBinAddr: 0x100009608, symSize: 0x26C }
  - { offsetInCU: 0x13F75, offset: 0x13F75, size: 0x8, addend: 0x0, symName: __ZNSt3__114__split_bufferIP4CellNS_9allocatorIS2_EEE9__end_capB8ue170006Ev, symObjAddr: 0x90DC, symBinAddr: 0x1000098B0, symSize: 0x28 }
  - { offsetInCU: 0x13F9B, offset: 0x13F9B, size: 0x8, addend: 0x0, symName: __ZNSt3__114__split_bufferIP4CellRNS_9allocatorIS2_EEE9__end_capB8ue170006Ev, symObjAddr: 0x9104, symBinAddr: 0x1000098D8, symSize: 0x28 }
  - { offsetInCU: 0x13FC1, offset: 0x13FC1, size: 0x8, addend: 0x0, symName: __ZNSt3__110unique_ptrIP4CellNS_22__allocator_destructorINS_9allocatorIS1_EEEEED1B8ue170006Ev, symObjAddr: 0x912C, symBinAddr: 0x100009900, symSize: 0x2C }
  - { offsetInCU: 0x13FEB, offset: 0x13FEB, size: 0x8, addend: 0x0, symName: __ZNSt3__114__split_bufferIP4CellRNS_9allocatorIS2_EEED1Ev, symObjAddr: 0x9158, symBinAddr: 0x10000992C, symSize: 0x2C }
  - { offsetInCU: 0x14017, offset: 0x14017, size: 0x8, addend: 0x0, symName: __ZNSt3__114__split_bufferIP4CellRNS_9allocatorIS2_EEE18__construct_at_endINS_13move_iteratorIPS2_EEEENS_9enable_ifIXsr31__has_forward_iterator_categoryIT_EE5valueEvE4typeESC_SC_, symObjAddr: 0x91C4, symBinAddr: 0x100009998, symSize: 0x60 }
  - { offsetInCU: 0x14064, offset: 0x14064, size: 0x8, addend: 0x0, symName: __ZNSt3__113move_iteratorIPP4CellEC1B8ue170006ES3_, symObjAddr: 0x9224, symBinAddr: 0x1000099F8, symSize: 0x34 }
  - { offsetInCU: 0x1409C, offset: 0x1409C, size: 0x8, addend: 0x0, symName: __ZNSt3__116allocator_traitsINS_9allocatorIP4CellEEE9constructB8ue170006IS3_JRKS3_EvEEvRS4_PT_DpOT0_, symObjAddr: 0x9258, symBinAddr: 0x100009A2C, symSize: 0x34 }
  - { offsetInCU: 0x1410C, offset: 0x1410C, size: 0x8, addend: 0x0, symName: __ZNKSt3__114__move_trivialclB8ue170006IP4CellS3_Li0EEENS_4pairIPT_PT0_EES6_S6_S8_, symObjAddr: 0x9428, symBinAddr: 0x100009BFC, symSize: 0x48 }
  - { offsetInCU: 0x14174, offset: 0x14174, size: 0x8, addend: 0x0, symName: __ZNSt3__14pairIPP4CellS3_EC1B8ue170006ERKS3_S6_, symObjAddr: 0x96A0, symBinAddr: 0x100009E74, symSize: 0x3C }
  - { offsetInCU: 0x141BA, offset: 0x141BA, size: 0x8, addend: 0x0, symName: __ZNSt3__14pairIPP4CellS3_EC2B8ue170006ERKS3_S6_, symObjAddr: 0x96DC, symBinAddr: 0x100009EB0, symSize: 0x34 }
  - { offsetInCU: 0x14200, offset: 0x14200, size: 0x8, addend: 0x0, symName: __ZNSt3__118__unwrap_iter_implIPP4CellLb1EE8__unwrapB8ue170006ES3_, symObjAddr: 0x9710, symBinAddr: 0x100009EE4, symSize: 0x24 }
  - { offsetInCU: 0x14223, offset: 0x14223, size: 0x8, addend: 0x0, symName: __ZNSt3__118__unwrap_iter_implIPP4CellLb1EE8__rewrapB8ue170006ES3_S3_, symObjAddr: 0x9734, symBinAddr: 0x100009F08, symSize: 0x50 }
  - { offsetInCU: 0x14254, offset: 0x14254, size: 0x8, addend: 0x0, symName: __ZNSt3__114__split_bufferIP4CellRNS_9allocatorIS2_EEE28__construct_at_end_with_sizeINS_13move_iteratorIPS2_EEEEvT_m, symObjAddr: 0x9784, symBinAddr: 0x100009F58, symSize: 0xE4 }
  - { offsetInCU: 0x142BA, offset: 0x142BA, size: 0x8, addend: 0x0, symName: __ZNSt3__114__split_bufferIP4CellRNS_9allocatorIS2_EEE21_ConstructTransactionC1B8ue170006EPPS2_m, symObjAddr: 0x98A4, symBinAddr: 0x10000A078, symSize: 0x3C }
  - { offsetInCU: 0x14300, offset: 0x14300, size: 0x8, addend: 0x0, symName: __ZNSt3__116allocator_traitsINS_9allocatorIP4CellEEE9constructB8ue170006IS3_JS3_EvEEvRS4_PT_DpOT0_, symObjAddr: 0x98E0, symBinAddr: 0x10000A0B4, symSize: 0x34 }
  - { offsetInCU: 0x14357, offset: 0x14357, size: 0x8, addend: 0x0, symName: __ZNSt3__114__split_bufferIP4CellRNS_9allocatorIS2_EEE7__allocB8ue170006Ev, symObjAddr: 0x9914, symBinAddr: 0x10000A0E8, symSize: 0x28 }
  - { offsetInCU: 0x1437D, offset: 0x1437D, size: 0x8, addend: 0x0, symName: __ZNKSt3__113move_iteratorIPP4CellEdeB8ue170006Ev, symObjAddr: 0x993C, symBinAddr: 0x10000A110, symSize: 0x18 }
  - { offsetInCU: 0x143A3, offset: 0x143A3, size: 0x8, addend: 0x0, symName: __ZNSt3__113move_iteratorIPP4CellEppB8ue170006Ev, symObjAddr: 0x9954, symBinAddr: 0x10000A128, symSize: 0x20 }
  - { offsetInCU: 0x143C9, offset: 0x143C9, size: 0x8, addend: 0x0, symName: __ZNSt3__114__split_bufferIP4CellRNS_9allocatorIS2_EEE21_ConstructTransactionD1B8ue170006Ev, symObjAddr: 0x9974, symBinAddr: 0x10000A148, symSize: 0x2C }
  - { offsetInCU: 0x143F3, offset: 0x143F3, size: 0x8, addend: 0x0, symName: __ZNSt3__114__split_bufferIP4CellRNS_9allocatorIS2_EEE21_ConstructTransactionC2B8ue170006EPPS2_m, symObjAddr: 0x99A0, symBinAddr: 0x10000A174, symSize: 0x44 }
  - { offsetInCU: 0x14439, offset: 0x14439, size: 0x8, addend: 0x0, symName: __ZNSt3__19allocatorIP4CellE9constructB8ue170006IS2_JS2_EEEvPT_DpOT0_, symObjAddr: 0x99E4, symBinAddr: 0x10000A1B8, symSize: 0x28 }
  - { offsetInCU: 0x1448F, offset: 0x1448F, size: 0x8, addend: 0x0, symName: __ZNSt3__117__compressed_pairIPP4CellRNS_9allocatorIS2_EEE6secondB8ue170006Ev, symObjAddr: 0x9A0C, symBinAddr: 0x10000A1E0, symSize: 0x28 }
  - { offsetInCU: 0x144B5, offset: 0x144B5, size: 0x8, addend: 0x0, symName: __ZNSt3__122__compressed_pair_elemIRNS_9allocatorIP4CellEELi1ELb0EE5__getB8ue170006Ev, symObjAddr: 0x9A34, symBinAddr: 0x10000A208, symSize: 0x18 }
  - { offsetInCU: 0x144DB, offset: 0x144DB, size: 0x8, addend: 0x0, symName: __ZNSt3__114__split_bufferIP4CellRNS_9allocatorIS2_EEE21_ConstructTransactionD2B8ue170006Ev, symObjAddr: 0x9A4C, symBinAddr: 0x10000A220, symSize: 0x20 }
  - { offsetInCU: 0x14505, offset: 0x14505, size: 0x8, addend: 0x0, symName: __ZNKSt3__113move_iteratorIPP4CellE4baseB8ue170006Ev, symObjAddr: 0x9AE4, symBinAddr: 0x10000A2B8, symSize: 0x18 }
  - { offsetInCU: 0x1452B, offset: 0x1452B, size: 0x8, addend: 0x0, symName: __ZNSt3__113move_iteratorIPP4CellEC2B8ue170006ES3_, symObjAddr: 0x9AFC, symBinAddr: 0x10000A2D0, symSize: 0x20 }
  - { offsetInCU: 0x14563, offset: 0x14563, size: 0x8, addend: 0x0, symName: __ZNSt3__19allocatorIP4CellE9constructB8ue170006IS2_JRKS2_EEEvPT_DpOT0_, symObjAddr: 0x9B1C, symBinAddr: 0x10000A2F0, symSize: 0x28 }
  - { offsetInCU: 0x145B9, offset: 0x145B9, size: 0x8, addend: 0x0, symName: __ZNSt3__19allocatorI4CellE8allocateB8ue170006Em, symObjAddr: 0x9B44, symBinAddr: 0x10000A318, symSize: 0x84 }
  - { offsetInCU: 0x145F7, offset: 0x145F7, size: 0x8, addend: 0x0, symName: __ZNSt3__116allocator_traitsINS_9allocatorI4CellEEE8max_sizeB8ue170006IS3_vEEmRKS3_, symObjAddr: 0x9BC8, symBinAddr: 0x10000A39C, symSize: 0x24 }
  - { offsetInCU: 0x14625, offset: 0x14625, size: 0x8, addend: 0x0, symName: __ZNKSt3__19allocatorI4CellE8max_sizeB8ue170006Ev, symObjAddr: 0x9BEC, symBinAddr: 0x10000A3C0, symSize: 0x14 }
  - { offsetInCU: 0x1464B, offset: 0x1464B, size: 0x8, addend: 0x0, symName: __ZNKSt3__123__move_backward_trivialclB8ue170006IP4CellS3_Li0EEENS_4pairIPT_PT0_EES6_S6_S8_, symObjAddr: 0x9D7C, symBinAddr: 0x10000A550, symSize: 0x48 }
  - { offsetInCU: 0x146B3, offset: 0x146B3, size: 0x8, addend: 0x0, symName: __ZNSt3__114__split_bufferIP4CellRNS_9allocatorIS2_EEEC2EmmS5_, symObjAddr: 0x9E8C, symBinAddr: 0x10000A660, symSize: 0xD4 }
  - { offsetInCU: 0x14727, offset: 0x14727, size: 0x8, addend: 0x0, symName: __ZNSt3__117__compressed_pairIPP4CellRNS_9allocatorIS2_EEEC1B8ue170006IDnS6_EEOT_OT0_, symObjAddr: 0x9F60, symBinAddr: 0x10000A734, symSize: 0x3C }
  - { offsetInCU: 0x1477F, offset: 0x1477F, size: 0x8, addend: 0x0, symName: __ZNSt3__117__compressed_pairIPP4CellRNS_9allocatorIS2_EEEC2B8ue170006IDnS6_EEOT_OT0_, symObjAddr: 0x9FDC, symBinAddr: 0x10000A7B0, symSize: 0x48 }
  - { offsetInCU: 0x147D7, offset: 0x147D7, size: 0x8, addend: 0x0, symName: __ZNSt3__122__compressed_pair_elemIRNS_9allocatorIP4CellEELi1ELb0EEC2B8ue170006IS5_vEEOT_, symObjAddr: 0xA024, symBinAddr: 0x10000A7F8, symSize: 0x20 }
  - { offsetInCU: 0x14819, offset: 0x14819, size: 0x8, addend: 0x0, symName: __ZNSt3__19allocatorIP4CellE8allocateB8ue170006Em, symObjAddr: 0xA044, symBinAddr: 0x10000A818, symSize: 0x84 }
  - { offsetInCU: 0x14857, offset: 0x14857, size: 0x8, addend: 0x0, symName: __ZNSt3__116allocator_traitsINS_9allocatorIP4CellEEE8max_sizeB8ue170006IS4_vEEmRKS4_, symObjAddr: 0xA0C8, symBinAddr: 0x10000A89C, symSize: 0x24 }
  - { offsetInCU: 0x14885, offset: 0x14885, size: 0x8, addend: 0x0, symName: __ZNKSt3__19allocatorIP4CellE8max_sizeB8ue170006Ev, symObjAddr: 0xA0EC, symBinAddr: 0x10000A8C0, symSize: 0x14 }
  - { offsetInCU: 0x148AB, offset: 0x148AB, size: 0x8, addend: 0x0, symName: __ZNSt3__122__allocator_destructorINS_9allocatorI4CellEEEC2B8ue170006ERS3_m, symObjAddr: 0xA100, symBinAddr: 0x10000A8D4, symSize: 0x2C }
  - { offsetInCU: 0x148F1, offset: 0x148F1, size: 0x8, addend: 0x0, symName: __ZNSt3__110unique_ptrIP4CellNS_22__allocator_destructorINS_9allocatorIS1_EEEEEC2B8ue170006ILb1EvEES2_NS_16__dependent_typeINS_27__unique_ptr_deleter_sfinaeIS6_EEXT_EE20__good_rval_ref_typeE, symObjAddr: 0xA12C, symBinAddr: 0x10000A900, symSize: 0x5C }
  - { offsetInCU: 0x14942, offset: 0x14942, size: 0x8, addend: 0x0, symName: __ZNSt3__117__compressed_pairIP4CellNS_22__allocator_destructorINS_9allocatorIS1_EEEEEC1B8ue170006IRS2_S6_EEOT_OT0_, symObjAddr: 0xA188, symBinAddr: 0x10000A95C, symSize: 0x3C }
  - { offsetInCU: 0x1499A, offset: 0x1499A, size: 0x8, addend: 0x0, symName: __ZNSt3__117__compressed_pairIP4CellNS_22__allocator_destructorINS_9allocatorIS1_EEEEEC2B8ue170006IRS2_S6_EEOT_OT0_, symObjAddr: 0xA1C4, symBinAddr: 0x10000A998, symSize: 0x48 }
  - { offsetInCU: 0x149F2, offset: 0x149F2, size: 0x8, addend: 0x0, symName: __ZNSt3__122__compressed_pair_elemIP4CellLi0ELb0EEC2B8ue170006IRS2_vEEOT_, symObjAddr: 0xA20C, symBinAddr: 0x10000A9E0, symSize: 0x24 }
  - { offsetInCU: 0x14A34, offset: 0x14A34, size: 0x8, addend: 0x0, symName: __ZNSt3__122__compressed_pair_elemINS_22__allocator_destructorINS_9allocatorI4CellEEEELi1ELb0EEC2B8ue170006IS5_vEEOT_, symObjAddr: 0xA230, symBinAddr: 0x10000AA04, symSize: 0x24 }
  - { offsetInCU: 0x14A76, offset: 0x14A76, size: 0x8, addend: 0x0, symName: __ZNKSt3__117__compressed_pairIP4CellNS_22__allocator_destructorINS_9allocatorIS1_EEEEE5firstB8ue170006Ev, symObjAddr: 0xA254, symBinAddr: 0x10000AA28, symSize: 0x24 }
  - { offsetInCU: 0x14A9C, offset: 0x14A9C, size: 0x8, addend: 0x0, symName: __ZNKSt3__122__compressed_pair_elemIP4CellLi0ELb0EE5__getB8ue170006Ev, symObjAddr: 0xA278, symBinAddr: 0x10000AA4C, symSize: 0x14 }
  - { offsetInCU: 0x14AC2, offset: 0x14AC2, size: 0x8, addend: 0x0, symName: __ZNSt3__117__compressed_pairIP4CellNS_22__allocator_destructorINS_9allocatorIS1_EEEEE5firstB8ue170006Ev, symObjAddr: 0xA28C, symBinAddr: 0x10000AA60, symSize: 0x24 }
  - { offsetInCU: 0x14AE8, offset: 0x14AE8, size: 0x8, addend: 0x0, symName: __ZNSt3__122__compressed_pair_elemIP4CellLi0ELb0EE5__getB8ue170006Ev, symObjAddr: 0xA2B0, symBinAddr: 0x10000AA84, symSize: 0x14 }
  - { offsetInCU: 0x14B0E, offset: 0x14B0E, size: 0x8, addend: 0x0, symName: __ZNSt3__117__compressed_pairIPP4CellNS_9allocatorIS2_EEE5firstB8ue170006Ev, symObjAddr: 0xA2C4, symBinAddr: 0x10000AA98, symSize: 0x24 }
  - { offsetInCU: 0x14B34, offset: 0x14B34, size: 0x8, addend: 0x0, symName: __ZNSt3__122__compressed_pair_elemIPP4CellLi0ELb0EE5__getB8ue170006Ev, symObjAddr: 0xA2E8, symBinAddr: 0x10000AABC, symSize: 0x14 }
  - { offsetInCU: 0x14B5A, offset: 0x14B5A, size: 0x8, addend: 0x0, symName: __ZNSt3__117__compressed_pairIPP4CellRNS_9allocatorIS2_EEE5firstB8ue170006Ev, symObjAddr: 0xA2FC, symBinAddr: 0x10000AAD0, symSize: 0x24 }
  - { offsetInCU: 0x14B80, offset: 0x14B80, size: 0x8, addend: 0x0, symName: __ZNSt3__110unique_ptrIP4CellNS_22__allocator_destructorINS_9allocatorIS1_EEEEED2B8ue170006Ev, symObjAddr: 0xA320, symBinAddr: 0x10000AAF4, symSize: 0x30 }
  - { offsetInCU: 0x14BAA, offset: 0x14BAA, size: 0x8, addend: 0x0, symName: __ZNSt3__110unique_ptrIP4CellNS_22__allocator_destructorINS_9allocatorIS1_EEEEE5resetB8ue170006ES2_, symObjAddr: 0xA350, symBinAddr: 0x10000AB24, symSize: 0x78 }
  - { offsetInCU: 0x14BEE, offset: 0x14BEE, size: 0x8, addend: 0x0, symName: __ZNSt3__117__compressed_pairIP4CellNS_22__allocator_destructorINS_9allocatorIS1_EEEEE6secondB8ue170006Ev, symObjAddr: 0xA3C8, symBinAddr: 0x10000AB9C, symSize: 0x28 }
  - { offsetInCU: 0x14C14, offset: 0x14C14, size: 0x8, addend: 0x0, symName: __ZNSt3__122__allocator_destructorINS_9allocatorI4CellEEEclB8ue170006EPS2_, symObjAddr: 0xA3F0, symBinAddr: 0x10000ABC4, symSize: 0x34 }
  - { offsetInCU: 0x14C48, offset: 0x14C48, size: 0x8, addend: 0x0, symName: __ZNSt3__122__compressed_pair_elemINS_22__allocator_destructorINS_9allocatorI4CellEEEELi1ELb0EE5__getB8ue170006Ev, symObjAddr: 0xA424, symBinAddr: 0x10000ABF8, symSize: 0x14 }
  - { offsetInCU: 0x14C6E, offset: 0x14C6E, size: 0x8, addend: 0x0, symName: __ZNSt3__114__split_bufferIP4CellRNS_9allocatorIS2_EEED2Ev, symObjAddr: 0xA438, symBinAddr: 0x10000AC0C, symSize: 0x80 }
  - { offsetInCU: 0x14C9A, offset: 0x14C9A, size: 0x8, addend: 0x0, symName: __ZNSt3__114__split_bufferIP4CellRNS_9allocatorIS2_EEE5clearB8ue170006Ev, symObjAddr: 0xA4B8, symBinAddr: 0x10000AC8C, symSize: 0x28 }
  - { offsetInCU: 0x14CC0, offset: 0x14CC0, size: 0x8, addend: 0x0, symName: __ZNKSt3__114__split_bufferIP4CellRNS_9allocatorIS2_EEE8capacityB8ue170006Ev, symObjAddr: 0xA4E0, symBinAddr: 0x10000ACB4, symSize: 0x40 }
  - { offsetInCU: 0x14CE6, offset: 0x14CE6, size: 0x8, addend: 0x0, symName: __ZNSt3__114__split_bufferIP4CellRNS_9allocatorIS2_EEE17__destruct_at_endB8ue170006EPS2_, symObjAddr: 0xA520, symBinAddr: 0x10000ACF4, symSize: 0x2C }
  - { offsetInCU: 0x14D1A, offset: 0x14D1A, size: 0x8, addend: 0x0, symName: __ZNSt3__114__split_bufferIP4CellRNS_9allocatorIS2_EEE17__destruct_at_endB8ue170006EPS2_NS_17integral_constantIbLb0EEE, symObjAddr: 0xA54C, symBinAddr: 0x10000AD20, symSize: 0x94 }
  - { offsetInCU: 0x14D5A, offset: 0x14D5A, size: 0x8, addend: 0x0, symName: __ZNKSt3__114__split_bufferIP4CellRNS_9allocatorIS2_EEE9__end_capB8ue170006Ev, symObjAddr: 0xA5E0, symBinAddr: 0x10000ADB4, symSize: 0x28 }
  - { offsetInCU: 0x14D80, offset: 0x14D80, size: 0x8, addend: 0x0, symName: __ZNKSt3__117__compressed_pairIPP4CellRNS_9allocatorIS2_EEE5firstB8ue170006Ev, symObjAddr: 0xA608, symBinAddr: 0x10000ADDC, symSize: 0x24 }
  - { offsetInCU: 0x14DA6, offset: 0x14DA6, size: 0x8, addend: 0x0, symName: __ZNSt3__19allocatorI4CellE9constructB8ue170006IS1_JRKS1_EEEvPT_DpOT0_, symObjAddr: 0xA62C, symBinAddr: 0x10000AE00, symSize: 0x28 }
  - { offsetInCU: 0x14DFC, offset: 0x14DFC, size: 0x8, addend: 0x0, symName: __ZNSt3__15stackI4CellNS_5dequeIS1_NS_9allocatorIS1_EEEEE3topB8ue170006Ev, symObjAddr: 0xA654, symBinAddr: 0x10000AE28, symSize: 0x24 }
  - { offsetInCU: 0x14E22, offset: 0x14E22, size: 0x8, addend: 0x0, symName: __ZNSt3__15stackI4CellNS_5dequeIS1_NS_9allocatorIS1_EEEEE3popB8ue170006Ev, symObjAddr: 0xA678, symBinAddr: 0x10000AE4C, symSize: 0x24 }
  - { offsetInCU: 0x14E48, offset: 0x14E48, size: 0x8, addend: 0x0, symName: __ZNSt3__15dequeI4CellNS_9allocatorIS1_EEE4backEv, symObjAddr: 0xA69C, symBinAddr: 0x10000AE70, symSize: 0x68 }
  - { offsetInCU: 0x14E7F, offset: 0x14E7F, size: 0x8, addend: 0x0, symName: __ZNSt3__15dequeI4CellNS_9allocatorIS1_EEE8pop_backEv, symObjAddr: 0xA704, symBinAddr: 0x10000AED8, symSize: 0xE0 }
  - { offsetInCU: 0x14EE3, offset: 0x14EE3, size: 0x8, addend: 0x0, symName: __ZNKSt3__15dequeI4CellNS_9allocatorIS1_EEE22__annotate_shrink_backB8ue170006Emm, symObjAddr: 0xA7E4, symBinAddr: 0x10000AFB8, symSize: 0x60 }
  - { offsetInCU: 0x14F27, offset: 0x14F27, size: 0x8, addend: 0x0, symName: __ZNSt3__15dequeI4CellNS_9allocatorIS1_EEE25__maybe_remove_back_spareB8ue170006Eb, symObjAddr: 0xA844, symBinAddr: 0x10000B018, symSize: 0xE8 }
  - { offsetInCU: 0x14F5C, offset: 0x14F5C, size: 0x8, addend: 0x0, symName: __ZNKSt3__15dequeI4CellNS_9allocatorIS1_EEE19__back_spare_blocksB8ue170006Ev, symObjAddr: 0xA92C, symBinAddr: 0x10000B100, symSize: 0x2C }
  - { offsetInCU: 0x14F82, offset: 0x14F82, size: 0x8, addend: 0x0, symName: __ZNSt3__114__split_bufferIP4CellNS_9allocatorIS2_EEE4backB8ue170006Ev, symObjAddr: 0xA958, symBinAddr: 0x10000B12C, symSize: 0x1C }
  - { offsetInCU: 0x14FA8, offset: 0x14FA8, size: 0x8, addend: 0x0, symName: __ZNSt3__114__split_bufferIP4CellNS_9allocatorIS2_EEE8pop_backB8ue170006Ev, symObjAddr: 0xA974, symBinAddr: 0x10000B148, symSize: 0x2C }
...
